 CourseworkBase

 Timestamp is 5730a5c1 (Mon May 09 15:59:13 2016)

 Preferred load address is 00400000

 Start         Length     Name                   Class
 0001:00000000 00002a5bH .text                   CODE
 0001:00002a60 00002c7bH .text$di                CODE
 0001:000056e0 0002681bH .text$mn                CODE
 0001:0002bf00 00002778H .text$x                 CODE
 0001:0002e680 0000143dH .text$yd                CODE
 0002:00000000 00000104H .CRT$XCA                DATA
 0002:00000104 00000104H .CRT$XCAA               DATA
 0002:00000208 00000104H .CRT$XCL                DATA
 0002:0000030c 000003ccH .CRT$XCU                DATA
 0002:000006d8 00000104H .CRT$XCZ                DATA
 0002:000007dc 00000104H .CRT$XIA                DATA
 0002:000008e0 00000104H .CRT$XIAA               DATA
 0002:000009e4 00000104H .CRT$XIC                DATA
 0002:00000ae8 00000104H .CRT$XIY                DATA
 0002:00000bec 00000104H .CRT$XIZ                DATA
 0002:00000cf0 00001828H .rdata                  DATA
 0002:00002518 00000164H .rdata$debug            DATA
 0002:0000267c 00001309H .rdata$r                DATA
 0002:00003990 00000298H .rdata$sxdata           DATA
 0002:00003c28 00000104H .rtc$IAA                DATA
 0002:00003d2c 00000104H .rtc$IZZ                DATA
 0002:00003e30 00000104H .rtc$TAA                DATA
 0002:00003f34 00000104H .rtc$TZZ                DATA
 0002:00004038 00001a96H .xdata$x                DATA
 0002:00005ace 00000000H .edata                  DATA
 0003:00000000 00000170H .data                   DATA
 0003:00000170 000008ffH .data$r                 DATA
 0003:00000a70 00000455H .bss                    DATA
 0004:00000000 0000047cH .idata$5                DATA
 0004:0000047c 00000078H .idata$2                DATA
 0004:000004f4 00000014H .idata$3                DATA
 0004:00000508 0000047cH .idata$4                DATA
 0004:00000984 00001963H .idata$6                DATA
 0005:00000000 00000169H .rsrc$01                DATA
 0005:00000170 000003e3H .rsrc$02                DATA

  Address         Publics by Value              Rva+Base       Lib:Object

 0000:00000000       __except_list              00000000     <absolute>
 0000:00000000       ___guard_flags             00000000     <absolute>
 0000:00000000       ___guard_fids_table        00000000     <absolute>
 0000:00000000       ___guard_fids_count        00000000     <absolute>
 0000:00000055       ___safe_se_handler_count   00000055     <absolute>
 0000:00009876       __fltused                  00009876     <absolute>
 0000:00009876       __ldused                   00009876     <absolute>
 0000:00000000       ___ImageBase               00400000     <linker-defined>
 0001:000023d0       _main                      004033d0 f   SDL2main:SDL_windows_main.obj
 0001:00002400       _WinMain@16                00403400 f   SDL2main:SDL_windows_main.obj
 0001:000056e0       ??$_Allocate@D@std@@YAPADIPAD@Z 004066e0 f i CatchableObject.obj
 0001:00005740       ??$addressof@D@std@@YAPADAAD@Z 00406740 f i CatchableObject.obj
 0001:00005760       ??$construct@PADAAPAD@?$_Wrap_alloc@V?$allocator@D@std@@@std@@QAEXPAPADAAPAD@Z 00406760 f i CatchableObject.obj
 0001:000057a0       ??$construct@PADAAPAD@?$allocator@D@std@@QAEXPAPADAAPAD@Z 004067a0 f i CatchableObject.obj
 0001:00005850       ??$construct@PADAAPAD@?$allocator_traits@V?$allocator@D@std@@@std@@SAXAAV?$allocator@D@1@PAPADAAPAD@Z 00406850 f i CatchableObject.obj
 0001:00005890       ??$destroy@PAD@?$_Wrap_alloc@V?$allocator@D@std@@@std@@QAEXPAPAD@Z 00406890 f i CatchableObject.obj
 0001:000058c0       ??$destroy@PAD@?$allocator@D@std@@QAEXPAPAD@Z 004068c0 f i CatchableObject.obj
 0001:000058e0       ??$destroy@PAD@?$allocator_traits@V?$allocator@D@std@@@std@@SAXAAV?$allocator@D@1@PAPAD@Z 004068e0 f i CatchableObject.obj
 0001:00005910       ??$forward@AAPAD@std@@YAAAPADAAPAD@Z 00406910 f i CatchableObject.obj
 0001:00005930       ??0?$_String_alloc@$0A@U?$_String_base_types@DV?$allocator@D@std@@@std@@@std@@QAE@ABV?$allocator@D@1@@Z 00406930 f i CatchableObject.obj
 0001:00005960       ??0?$_String_val@U?$_Simple_types@D@std@@@std@@QAE@XZ 00406960 f i CatchableObject.obj
 0001:000059a0       ??0?$_Wrap_alloc@V?$allocator@D@std@@@std@@QAE@XZ 004069a0 f i CatchableObject.obj
 0001:000059d0       ??0?$allocator@D@std@@QAE@XZ 004069d0 f i CatchableObject.obj
 0001:000059f0       ??0?$basic_string@DU?$char_traits@D@std@@V?$allocator@D@2@@std@@QAE@PBD@Z 004069f0 f i CatchableObject.obj
 0001:00005a50       ??0CatchableObject@@QAE@PAVGoldenManEngine@@HHHH@Z 00406a50 f   CatchableObject.obj
 0001:00005b10       ??0ImageData@@QAE@XZ       00406b10 f i CatchableObject.obj
 0001:00005b50       ??0_Generic_error_category@std@@QAE@XZ 00406b50 f i CatchableObject.obj
 0001:00005b80       ??0_Ignore@std@@QAE@XZ     00406b80 f i CatchableObject.obj
 0001:00005ba0       ??0_Iostream_error_category@std@@QAE@XZ 00406ba0 f i CatchableObject.obj
 0001:00005bd0       ??0_System_error_category@std@@QAE@XZ 00406bd0 f i CatchableObject.obj
 0001:00005c00       ??0error_category@std@@QAE@XZ 00406c00 f i CatchableObject.obj
 0001:00005c30       ??0error_condition@std@@QAE@HABVerror_category@1@@Z 00406c30 f i CatchableObject.obj
 0001:00005c70       ??1CatchableObject@@UAE@XZ 00406c70 f   CatchableObject.obj
 0001:00005cf0       ??1ImageData@@QAE@XZ       00406cf0 f i CatchableObject.obj
 0001:00005d30       ??1_Generic_error_category@std@@UAE@XZ 00406d30 f i CatchableObject.obj
 0001:00005d60       ??1_Iostream_error_category@std@@UAE@XZ 00406d60 f i CatchableObject.obj
 0001:00005d90       ??1_System_error_category@std@@UAE@XZ 00406d90 f i CatchableObject.obj
 0001:00005dc0       ??1error_category@std@@UAE@XZ 00406dc0 f i CatchableObject.obj
 0001:00005df0       ??2@YAPAXIPAX@Z            00406df0 f i CatchableObject.obj
 0001:00005e10       ??3@YAXPAX0@Z              00406e10 f i CatchableObject.obj
 0001:00005e30       ??8error_category@std@@QBE_NABV01@@Z 00406e30 f i CatchableObject.obj
 0001:00005e70       ??8error_condition@std@@QBE_NABV01@@Z 00406e70 f i CatchableObject.obj
 0001:00005ef0       ??_ECatchableObject@@UAEPAXI@Z 00406ef0 f i CatchableObject.obj
 0001:00005ef0       ??_GCatchableObject@@UAEPAXI@Z 00406ef0 f i CatchableObject.obj
 0001:00005f40       ??_G_Generic_error_category@std@@UAEPAXI@Z 00406f40 f i CatchableObject.obj
 0001:00005f40       ??_E_Generic_error_category@std@@UAEPAXI@Z 00406f40 f i CatchableObject.obj
 0001:00005f90       ??_E_Iostream_error_category@std@@UAEPAXI@Z 00406f90 f i CatchableObject.obj
 0001:00005f90       ??_G_Iostream_error_category@std@@UAEPAXI@Z 00406f90 f i CatchableObject.obj
 0001:00005fe0       ??_E_System_error_category@std@@UAEPAXI@Z 00406fe0 f i CatchableObject.obj
 0001:00005fe0       ??_G_System_error_category@std@@UAEPAXI@Z 00406fe0 f i CatchableObject.obj
 0001:00006030       ??_Gerror_category@std@@UAEPAXI@Z 00407030 f i CatchableObject.obj
 0001:00006030       ??_Eerror_category@std@@UAEPAXI@Z 00407030 f i CatchableObject.obj
 0001:00006080       ?DoUpdate@CatchableObject@@UAEXH@Z 00407080 f   CatchableObject.obj
 0001:000060a0       ?Draw@CatchableObject@@UAEXXZ 004070a0 f   CatchableObject.obj
 0001:000060c0       ?GetXCentre@DisplayableObject@@QBEHXZ 004070c0 f i CatchableObject.obj
 0001:00006100       ?GetYCentre@DisplayableObject@@QBEHXZ 00407100 f i CatchableObject.obj
 0001:00006140       ?HookDetection@CatchableObject@@QAEHH@Z 00407140 f   CatchableObject.obj
 0001:000064a0       ?Notify@DisplayableObject@@UAEJH@Z 004074a0 f i CatchableObject.obj
 0001:000064c0       ?SetVisible@DisplayableObject@@QAEX_N@Z 004074c0 f i CatchableObject.obj
 0001:000064f0       ?_Copy@?$basic_string@DU?$char_traits@D@std@@V?$allocator@D@2@@std@@QAEXII@Z 004074f0 f i CatchableObject.obj
 0001:00006720       ?_Eos@?$basic_string@DU?$char_traits@D@std@@V?$allocator@D@2@@std@@QAEXI@Z 00407720 f i CatchableObject.obj
 0001:00006770       ?_Getal@?$_String_alloc@$0A@U?$_String_base_types@DV?$allocator@D@std@@@std@@@std@@QBE?AU?$_Wrap_alloc@V?$allocator@D@std@@@2@XZ 00407770 f i CatchableObject.obj
 0001:000067a0       ?_Grow@?$basic_string@DU?$char_traits@D@std@@V?$allocator@D@2@@std@@QAE_NI_N@Z 004077a0 f i CatchableObject.obj
 0001:00006880       ?_Inside@?$basic_string@DU?$char_traits@D@std@@V?$allocator@D@2@@std@@QAE_NPBD@Z 00407880 f i CatchableObject.obj
 0001:000068e0       ?_Myptr@?$_String_val@U?$_Simple_types@D@std@@@std@@QAEPADXZ 004078e0 f i CatchableObject.obj
 0001:00006930       ?_Myptr@?$_String_val@U?$_Simple_types@D@std@@@std@@QBEPBDXZ 00407930 f i CatchableObject.obj
 0001:00006980       ?_Tidy@?$basic_string@DU?$char_traits@D@std@@V?$allocator@D@2@@std@@QAEX_NI@Z 00407980 f i CatchableObject.obj
 0001:00006a50       ?_Xlen@?$basic_string@DU?$char_traits@D@std@@V?$allocator@D@2@@std@@QBEXXZ 00407a50 f i CatchableObject.obj
 0001:00006a80       ?_Xran@?$basic_string@DU?$char_traits@D@std@@V?$allocator@D@2@@std@@QBEXXZ 00407a80 f i CatchableObject.obj
 0001:00006ab0       ?allocate@?$_Wrap_alloc@V?$allocator@D@std@@@std@@QAEPADI@Z 00407ab0 f i CatchableObject.obj
 0001:00006ae0       ?allocate@?$allocator@D@std@@QAEPADI@Z 00407ae0 f i CatchableObject.obj
 0001:00006b10       ?assign@?$basic_string@DU?$char_traits@D@std@@V?$allocator@D@2@@std@@QAEAAV12@ABV12@II@Z 00407b10 f i CatchableObject.obj
 0001:00006bf0       ?assign@?$basic_string@DU?$char_traits@D@std@@V?$allocator@D@2@@std@@QAEAAV12@PBD@Z 00407bf0 f i CatchableObject.obj
 0001:00006c30       ?assign@?$basic_string@DU?$char_traits@D@std@@V?$allocator@D@2@@std@@QAEAAV12@PBDI@Z 00407c30 f i CatchableObject.obj
 0001:00006ce0       ?assign@?$char_traits@D@std@@SAXAADABD@Z 00407ce0 f i CatchableObject.obj
 0001:00006d00       ?category@error_code@std@@QBEABVerror_category@2@XZ 00407d00 f i CatchableObject.obj
 0001:00006d20       ?category@error_condition@std@@QBEABVerror_category@2@XZ 00407d20 f i CatchableObject.obj
 0001:00006d40       ?copy@?$char_traits@D@std@@SAPADPADPBDI@Z 00407d40 f i CatchableObject.obj
 0001:00006d90       ?deallocate@?$_Wrap_alloc@V?$allocator@D@std@@@std@@QAEXPADI@Z 00407d90 f i CatchableObject.obj
 0001:00006dc0       ?deallocate@?$allocator@D@std@@QAEXPADI@Z 00407dc0 f i CatchableObject.obj
 0001:00006df0       ?default_error_condition@_System_error_category@std@@UBE?AVerror_condition@2@H@Z 00407df0 f i CatchableObject.obj
 0001:00006e60       ?default_error_condition@error_category@std@@UBE?AVerror_condition@2@H@Z 00407e60 f i CatchableObject.obj
 0001:00006ea0       ?equivalent@error_category@std@@UBE_NABVerror_code@2@H@Z 00407ea0 f i CatchableObject.obj
 0001:00006f00       ?equivalent@error_category@std@@UBE_NHABVerror_condition@2@@Z 00407f00 f i CatchableObject.obj
 0001:00006f50       ?erase@?$basic_string@DU?$char_traits@D@std@@V?$allocator@D@2@@std@@QAEAAV12@I@Z 00407f50 f i CatchableObject.obj
 0001:00006fa0       ?erase@?$basic_string@DU?$char_traits@D@std@@V?$allocator@D@2@@std@@QAEAAV12@II@Z 00407fa0 f i CatchableObject.obj
 0001:00007050       ?generic_category@std@@YAABVerror_category@1@XZ 00408050 f i CatchableObject.obj
 0001:00007070       ?length@?$char_traits@D@std@@SAIPBD@Z 00408070 f i CatchableObject.obj
 0001:000070c0       ?max_size@?$_Wrap_alloc@V?$allocator@D@std@@@std@@QBEIXZ 004080c0 f i CatchableObject.obj
 0001:000070f0       ?max_size@?$allocator@D@std@@QBEIXZ 004080f0 f i CatchableObject.obj
 0001:00007110       ?max_size@?$allocator_traits@V?$allocator@D@std@@@std@@SAIABV?$allocator@D@2@@Z 00408110 f i CatchableObject.obj
 0001:00007130       ?max_size@?$basic_string@DU?$char_traits@D@std@@V?$allocator@D@2@@std@@QBEIXZ 00408130 f i CatchableObject.obj
 0001:00007190       ?message@_Generic_error_category@std@@UBE?AV?$basic_string@DU?$char_traits@D@std@@V?$allocator@D@2@@2@H@Z 00408190 f i CatchableObject.obj
 0001:00007200       ?message@_Iostream_error_category@std@@UBE?AV?$basic_string@DU?$char_traits@D@std@@V?$allocator@D@2@@2@H@Z 00408200 f i CatchableObject.obj
 0001:00007280       ?message@_System_error_category@std@@UBE?AV?$basic_string@DU?$char_traits@D@std@@V?$allocator@D@2@@2@H@Z 00408280 f i CatchableObject.obj
 0001:000072f0       ?move@?$char_traits@D@std@@SAPADPADPBDI@Z 004082f0 f i CatchableObject.obj
 0001:00007340       ?name@_Generic_error_category@std@@UBEPBDXZ 00408340 f i CatchableObject.obj
 0001:00007360       ?name@_Iostream_error_category@std@@UBEPBDXZ 00408360 f i CatchableObject.obj
 0001:00007380       ?name@_System_error_category@std@@UBEPBDXZ 00408380 f i CatchableObject.obj
 0001:000073a0       ?size@?$basic_string@DU?$char_traits@D@std@@V?$allocator@D@2@@std@@QBEIXZ 004083a0 f i CatchableObject.obj
 0001:000073c0       ?system_category@std@@YAABVerror_category@1@XZ 004083c0 f i CatchableObject.obj
 0001:000073e0       ?value@error_code@std@@QBEHXZ 004083e0 f i CatchableObject.obj
 0001:00007400       ?value@error_condition@std@@QBEHXZ 00408400 f i CatchableObject.obj
 0001:00007420       _hypot                     00408420 f i CatchableObject.obj
 0001:00007460       ??0DemoAMain@@QAE@XZ       00408460 f   DemoAMain.obj
 0001:000074a0       ??1DemoAMain@@UAE@XZ       004084a0 f   DemoAMain.obj
 0001:000074d0       ??_GDemoAMain@@UAEPAXI@Z   004084d0 f i DemoAMain.obj
 0001:000074d0       ??_EDemoAMain@@UAEPAXI@Z   004084d0 f i DemoAMain.obj
 0001:00007520       ?DrawBackgroundOval@BaseEngine@@QAEXHHHHI@Z 00408520 f i DemoAMain.obj
 0001:00007570       ?DrawBackgroundRectangle@BaseEngine@@QAEXHHHHI@Z 00408570 f i DemoAMain.obj
 0001:000075c0       ?DrawableObjectsChanged@BaseEngine@@QAEXXZ 004085c0 f i DemoAMain.obj
 0001:000075f0       ?GetIntsPerScreenRow@BaseEngine@@IBEHPAUSDL_Surface@@@Z 004085f0 f i DemoAMain.obj
 0001:00007620       ?GetModifiedTime@BaseEngine@@UBEHXZ 00408620 f i DemoAMain.obj
 0001:00007650       ?GetScreenHeight@BaseEngine@@QBEHXZ 00408650 f i DemoAMain.obj
 0001:00007670       ?GetScreenWidth@BaseEngine@@QBEHXZ 00408670 f i DemoAMain.obj
 0001:00007690       ?InitialiseObjects@DemoAMain@@UAEHXZ 00408690 f   DemoAMain.obj
 0001:00007780       ?KeyDown@DemoAMain@@UAEXH@Z 00408780 f   DemoAMain.obj
 0001:000077d0       ?MouseDown@DemoAMain@@UAEXHHH@Z 004087d0 f   DemoAMain.obj
 0001:000078a0       ?Redraw@BaseEngine@@QAEX_N@Z 004088a0 f i DemoAMain.obj
 0001:000078e0       ?SetBackgroundPixel@BaseEngine@@QAEXHHI@Z 004088e0 f i DemoAMain.obj
 0001:000079c0       ?SetPixel@BaseEngine@@QAEXHHIPAUSDL_Surface@@@Z 004089c0 f i DemoAMain.obj
 0001:00007ab0       ?SetupBackgroundBuffer@DemoAMain@@UAEXXZ 00408ab0 f   DemoAMain.obj
 0001:00007c40       ??0DemoBObject@@QAE@PAVBaseEngine@@@Z 00408c40 f   DemoBObject.obj
 0001:00007d30       ??1DemoBObject@@UAE@XZ     00408d30 f   DemoBObject.obj
 0001:00007d60       ??_GDemoBObject@@UAEPAXI@Z 00408d60 f i DemoBObject.obj
 0001:00007d60       ??_EDemoBObject@@UAEPAXI@Z 00408d60 f i DemoBObject.obj
 0001:00007db0       ?DoUpdate@DemoBObject@@UAEXH@Z 00408db0 f   DemoBObject.obj
 0001:00007eb0       ?Draw@DemoBObject@@UAEXXZ  00408eb0 f   DemoBObject.obj
 0001:00007f30       ?DrawScreenRectangle@BaseEngine@@QAEXHHHHI@Z 00408f30 f i DemoBObject.obj
 0001:00007f80       ?GetEngine@DisplayableObject@@QBEPAVBaseEngine@@XZ 00408f80 f i DemoBObject.obj
 0001:00007fa0       ?RedrawObjects@DisplayableObject@@QAEXXZ 00408fa0 f i DemoBObject.obj
 0001:00007fd0       ??0DiamondObject@@QAE@PAVGoldenManEngine@@HH@Z 00408fd0 f   DiamondObject.obj
 0001:00008190       ??1DiamondObject@@UAE@XZ   00409190 f   DiamondObject.obj
 0001:00008210       ??_GDiamondObject@@UAEPAXI@Z 00409210 f i DiamondObject.obj
 0001:00008210       ??_EDiamondObject@@UAEPAXI@Z 00409210 f i DiamondObject.obj
 0001:00008260       ?DoUpdate@DiamondObject@@UAEXH@Z 00409260 f   DiamondObject.obj
 0001:000082d0       ?Draw@DiamondObject@@UAEXXZ 004092d0 f   DiamondObject.obj
 0001:000083c0       ?DrawScreenString@BaseEngine@@QAEXHHPBDIPAVFont@@@Z 004093c0 f i DiamondObject.obj
 0001:00008410       ?GetDimondX@DiamondObject@@QAEHXZ 00409410 f   DiamondObject.obj
 0001:00008440       ?GetDimondY@DiamondObject@@QAEHXZ 00409440 f   DiamondObject.obj
 0001:00008470       ?GetHeight@ImageData@@QBEHXZ 00409470 f i DiamondObject.obj
 0001:00008490       ?GetSDLSurface@BaseEngine@@QAEPAUSDL_Surface@@XZ 00409490 f i DiamondObject.obj
 0001:000084b0       ?GetWidth@ImageData@@QBEHXZ 004094b0 f i DiamondObject.obj
 0001:000084d0       ?IsVisible@DisplayableObject@@QBE_NXZ 004094d0 f i DiamondObject.obj
 0001:000084f0       ?PigArrive@DiamondObject@@QAEXXZ 004094f0 f   DiamondObject.obj
 0001:00008530       ?PigLeave@DiamondObject@@QAEXXZ 00409530 f   DiamondObject.obj
 0001:00008570       ?PigUpDown@DiamondObject@@QAEXXZ 00409570 f   DiamondObject.obj
 0001:000085e0       ??$?0U?$_List_node@V?$basic_string@DU?$char_traits@D@std@@V?$allocator@D@2@@std@@PAX@std@@@?$allocator@V?$basic_string@DU?$char_traits@D@std@@V?$allocator@D@2@@std@@@std@@QAE@ABV?$allocator@U?$_List_node@V?$basic_string@DU?$char_traits@D@std@@V?$allocator@D@2@@std@@PAX@std@@@1@@Z 004095e0 f i GoldenManEngine.obj
 0001:00008600       ??$?6DU?$char_traits@D@std@@V?$allocator@D@1@@std@@YAAAV?$basic_ostream@DU?$char_traits@D@std@@@0@AAV10@ABV?$basic_string@DU?$char_traits@D@std@@V?$allocator@D@2@@0@@Z 00409600 f i GoldenManEngine.obj
 0001:000089e0       ??$?6U?$char_traits@D@std@@@std@@YAAAV?$basic_ostream@DU?$char_traits@D@std@@@0@AAV10@PBD@Z 004099e0 f i GoldenManEngine.obj
 0001:00008e70       ??$?8DD@std@@YA_NABV?$allocator@D@0@0@Z 00409e70 f i GoldenManEngine.obj
 0001:00008e90       ??$?8U?$_List_node@V?$basic_string@DU?$char_traits@D@std@@V?$allocator@D@2@@std@@PAX@std@@U01@@std@@YA_NABV?$allocator@U?$_List_node@V?$basic_string@DU?$char_traits@D@std@@V?$allocator@D@2@@std@@PAX@std@@@0@0@Z 00409e90 f i GoldenManEngine.obj
 0001:00008eb0       ??$?8V?$allocator@D@std@@V01@@std@@YA_NABU?$_Wrap_alloc@V?$allocator@D@std@@@0@0@Z 00409eb0 f i GoldenManEngine.obj
 0001:00008ef0       ??$?8V?$allocator@U?$_List_node@V?$basic_string@DU?$char_traits@D@std@@V?$allocator@D@2@@std@@PAX@std@@@std@@V01@@std@@YA_NABU?$_Wrap_alloc@V?$allocator@U?$_List_node@V?$basic_string@DU?$char_traits@D@std@@V?$allocator@D@2@@std@@PAX@std@@@std@@@0@0@Z 00409ef0 f i GoldenManEngine.obj
 0001:00008f30       ??$?9V?$allocator@D@std@@V01@@std@@YA_NABU?$_Wrap_alloc@V?$allocator@D@std@@@0@0@Z 00409f30 f i GoldenManEngine.obj
 0001:00008f80       ??$?9V?$allocator@U?$_List_node@V?$basic_string@DU?$char_traits@D@std@@V?$allocator@D@2@@std@@PAX@std@@@std@@V01@@std@@YA_NABU?$_Wrap_alloc@V?$allocator@U?$_List_node@V?$basic_string@DU?$char_traits@D@std@@V?$allocator@D@2@@std@@PAX@std@@@std@@@0@0@Z 00409f80 f i GoldenManEngine.obj
 0001:00008fd0       ??$_Allocate@U?$_List_node@V?$basic_string@DU?$char_traits@D@std@@V?$allocator@D@2@@std@@PAX@std@@@std@@YAPAU?$_List_node@V?$basic_string@DU?$char_traits@D@std@@V?$allocator@D@2@@std@@PAX@0@IPAU10@@Z 00409fd0 f i GoldenManEngine.obj
 0001:00009030       ??$_Buynode@ABV?$basic_string@DU?$char_traits@D@std@@V?$allocator@D@2@@std@@@?$_List_buy@V?$basic_string@DU?$char_traits@D@std@@V?$allocator@D@2@@std@@V?$allocator@V?$basic_string@DU?$char_traits@D@std@@V?$allocator@D@2@@std@@@2@@std@@QAEPAU?$_List_node@V?$basic_string@DU?$char_traits@D@std@@V?$allocator@D@2@@std@@PAX@1@PAU21@0ABV?$basic_string@DU?$char_traits@D@std@@V?$allocator@D@2@@1@@Z 0040a030 f i GoldenManEngine.obj
 0001:00009150       ??$_Fgetc@D@std@@YA_NAADPAU_iobuf@@@Z 0040a150 f i GoldenManEngine.obj
 0001:000091a0       ??$_Fputc@D@std@@YA_NDPAU_iobuf@@@Z 0040a1a0 f i GoldenManEngine.obj
 0001:000091f0       ??$_Insert@ABV?$basic_string@DU?$char_traits@D@std@@V?$allocator@D@2@@std@@@?$list@V?$basic_string@DU?$char_traits@D@std@@V?$allocator@D@2@@std@@V?$allocator@V?$basic_string@DU?$char_traits@D@std@@V?$allocator@D@2@@std@@@2@@std@@QAEXV?$_List_unchecked_const_iterator@V?$_List_val@U?$_List_simple_types@V?$basic_string@DU?$char_traits@D@std@@V?$allocator@D@2@@std@@@std@@@std@@U_Iterator_base0@2@@1@ABV?$basic_string@DU?$char_traits@D@std@@V?$allocator@D@2@@1@@Z 0040a1f0 f i GoldenManEngine.obj
 0001:000092a0       ??$_Move@AAI@std@@YA$$QAIAAI@Z 0040a2a0 f i GoldenManEngine.obj
 0001:000092c0       ??$_Move@AAPAU?$_List_node@V?$basic_string@DU?$char_traits@D@std@@V?$allocator@D@2@@std@@PAX@std@@@std@@YA$$QAPAU?$_List_node@V?$basic_string@DU?$char_traits@D@std@@V?$allocator@D@2@@std@@PAX@0@AAPAU10@@Z 0040a2c0 f i GoldenManEngine.obj
 0001:000092e0       ??$_Swap_adl@PAU?$_List_node@V?$basic_string@DU?$char_traits@D@std@@V?$allocator@D@2@@std@@PAX@std@@@std@@YAXAAPAU?$_List_node@V?$basic_string@DU?$char_traits@D@std@@V?$allocator@D@2@@std@@PAX@0@0@Z 0040a2e0 f i GoldenManEngine.obj
 0001:00009310       ??$_Ungetc@D@std@@YA_NABDPAU_iobuf@@@Z 0040a310 f i GoldenManEngine.obj
 0001:00009360       ??$addressof@PAU?$_List_node@V?$basic_string@DU?$char_traits@D@std@@V?$allocator@D@2@@std@@PAX@std@@@std@@YAPAPAU?$_List_node@V?$basic_string@DU?$char_traits@D@std@@V?$allocator@D@2@@std@@PAX@0@AAPAU10@@Z 0040a360 f i GoldenManEngine.obj
 0001:00009380       ??$addressof@V?$basic_string@DU?$char_traits@D@std@@V?$allocator@D@2@@std@@@std@@YAPAV?$basic_string@DU?$char_traits@D@std@@V?$allocator@D@2@@0@AAV10@@Z 0040a380 f i GoldenManEngine.obj
 0001:000093a0       ??$construct@PAU?$_List_node@V?$basic_string@DU?$char_traits@D@std@@V?$allocator@D@2@@std@@PAX@std@@AAPAU12@@?$_Wrap_alloc@V?$allocator@U?$_List_node@V?$basic_string@DU?$char_traits@D@std@@V?$allocator@D@2@@std@@PAX@std@@@std@@@std@@QAEXPAPAU?$_List_node@V?$basic_string@DU?$char_traits@D@std@@V?$allocator@D@2@@std@@PAX@1@AAPAU21@@Z 0040a3a0 f i GoldenManEngine.obj
 0001:000093e0       ??$construct@PAU?$_List_node@V?$basic_string@DU?$char_traits@D@std@@V?$allocator@D@2@@std@@PAX@std@@AAPAU12@@?$allocator@U?$_List_node@V?$basic_string@DU?$char_traits@D@std@@V?$allocator@D@2@@std@@PAX@std@@@std@@QAEXPAPAU?$_List_node@V?$basic_string@DU?$char_traits@D@std@@V?$allocator@D@2@@std@@PAX@1@AAPAU21@@Z 0040a3e0 f i GoldenManEngine.obj
 0001:00009490       ??$construct@PAU?$_List_node@V?$basic_string@DU?$char_traits@D@std@@V?$allocator@D@2@@std@@PAX@std@@AAPAU12@@?$allocator_traits@V?$allocator@U?$_List_node@V?$basic_string@DU?$char_traits@D@std@@V?$allocator@D@2@@std@@PAX@std@@@std@@@std@@SAXAAV?$allocator@U?$_List_node@V?$basic_string@DU?$char_traits@D@std@@V?$allocator@D@2@@std@@PAX@std@@@1@PAPAU?$_List_node@V?$basic_string@DU?$char_traits@D@std@@V?$allocator@D@2@@std@@PAX@1@AAPAU31@@Z 0040a490 f i GoldenManEngine.obj
 0001:000094d0       ??$construct@V?$basic_string@DU?$char_traits@D@std@@V?$allocator@D@2@@std@@ABV12@@?$_Wrap_alloc@V?$allocator@U?$_List_node@V?$basic_string@DU?$char_traits@D@std@@V?$allocator@D@2@@std@@PAX@std@@@std@@@std@@QAEXPAV?$basic_string@DU?$char_traits@D@std@@V?$allocator@D@2@@1@ABV21@@Z 0040a4d0 f i GoldenManEngine.obj
 0001:00009510       ??$construct@V?$basic_string@DU?$char_traits@D@std@@V?$allocator@D@2@@std@@ABV12@@?$allocator@U?$_List_node@V?$basic_string@DU?$char_traits@D@std@@V?$allocator@D@2@@std@@PAX@std@@@std@@QAEXPAV?$basic_string@DU?$char_traits@D@std@@V?$allocator@D@2@@1@ABV21@@Z 0040a510 f i GoldenManEngine.obj
 0001:000095c0       ??$construct@V?$basic_string@DU?$char_traits@D@std@@V?$allocator@D@2@@std@@ABV12@@?$allocator_traits@V?$allocator@U?$_List_node@V?$basic_string@DU?$char_traits@D@std@@V?$allocator@D@2@@std@@PAX@std@@@std@@@std@@SAXAAV?$allocator@U?$_List_node@V?$basic_string@DU?$char_traits@D@std@@V?$allocator@D@2@@std@@PAX@std@@@1@PAV?$basic_string@DU?$char_traits@D@std@@V?$allocator@D@2@@1@ABV31@@Z 0040a5c0 f i GoldenManEngine.obj
 0001:00009600       ??$destroy@PAU?$_List_node@V?$basic_string@DU?$char_traits@D@std@@V?$allocator@D@2@@std@@PAX@std@@@?$_Wrap_alloc@V?$allocator@U?$_List_node@V?$basic_string@DU?$char_traits@D@std@@V?$allocator@D@2@@std@@PAX@std@@@std@@@std@@QAEXPAPAU?$_List_node@V?$basic_string@DU?$char_traits@D@std@@V?$allocator@D@2@@std@@PAX@1@@Z 0040a600 f i GoldenManEngine.obj
 0001:00009630       ??$destroy@PAU?$_List_node@V?$basic_string@DU?$char_traits@D@std@@V?$allocator@D@2@@std@@PAX@std@@@?$allocator@U?$_List_node@V?$basic_string@DU?$char_traits@D@std@@V?$allocator@D@2@@std@@PAX@std@@@std@@QAEXPAPAU?$_List_node@V?$basic_string@DU?$char_traits@D@std@@V?$allocator@D@2@@std@@PAX@1@@Z 0040a630 f i GoldenManEngine.obj
 0001:00009650       ??$destroy@PAU?$_List_node@V?$basic_string@DU?$char_traits@D@std@@V?$allocator@D@2@@std@@PAX@std@@@?$allocator_traits@V?$allocator@U?$_List_node@V?$basic_string@DU?$char_traits@D@std@@V?$allocator@D@2@@std@@PAX@std@@@std@@@std@@SAXAAV?$allocator@U?$_List_node@V?$basic_string@DU?$char_traits@D@std@@V?$allocator@D@2@@std@@PAX@std@@@1@PAPAU?$_List_node@V?$basic_string@DU?$char_traits@D@std@@V?$allocator@D@2@@std@@PAX@1@@Z 0040a650 f i GoldenManEngine.obj
 0001:00009680       ??$destroy@V?$basic_string@DU?$char_traits@D@std@@V?$allocator@D@2@@std@@@?$_Wrap_alloc@V?$allocator@U?$_List_node@V?$basic_string@DU?$char_traits@D@std@@V?$allocator@D@2@@std@@PAX@std@@@std@@@std@@QAEXPAV?$basic_string@DU?$char_traits@D@std@@V?$allocator@D@2@@1@@Z 0040a680 f i GoldenManEngine.obj
 0001:000096b0       ??$destroy@V?$basic_string@DU?$char_traits@D@std@@V?$allocator@D@2@@std@@@?$allocator@U?$_List_node@V?$basic_string@DU?$char_traits@D@std@@V?$allocator@D@2@@std@@PAX@std@@@std@@QAEXPAV?$basic_string@DU?$char_traits@D@std@@V?$allocator@D@2@@1@@Z 0040a6b0 f i GoldenManEngine.obj
 0001:000096e0       ??$destroy@V?$basic_string@DU?$char_traits@D@std@@V?$allocator@D@2@@std@@@?$allocator_traits@V?$allocator@U?$_List_node@V?$basic_string@DU?$char_traits@D@std@@V?$allocator@D@2@@std@@PAX@std@@@std@@@std@@SAXAAV?$allocator@U?$_List_node@V?$basic_string@DU?$char_traits@D@std@@V?$allocator@D@2@@std@@PAX@std@@@1@PAV?$basic_string@DU?$char_traits@D@std@@V?$allocator@D@2@@1@@Z 0040a6e0 f i GoldenManEngine.obj
 0001:00009710       ??$endl@DU?$char_traits@D@std@@@std@@YAAAV?$basic_ostream@DU?$char_traits@D@std@@@0@AAV10@@Z 0040a710 f i GoldenManEngine.obj
 0001:00009760       ??$forward@AAPAU?$_List_node@V?$basic_string@DU?$char_traits@D@std@@V?$allocator@D@2@@std@@PAX@std@@@std@@YAAAPAU?$_List_node@V?$basic_string@DU?$char_traits@D@std@@V?$allocator@D@2@@std@@PAX@0@AAPAU10@@Z 0040a760 f i GoldenManEngine.obj
 0001:00009780       ??$forward@ABV?$basic_string@DU?$char_traits@D@std@@V?$allocator@D@2@@std@@@std@@YAABV?$basic_string@DU?$char_traits@D@std@@V?$allocator@D@2@@0@ABV10@@Z 0040a780 f i GoldenManEngine.obj
 0001:000097a0       ??$getline@DU?$char_traits@D@std@@V?$allocator@D@2@@std@@YAAAV?$basic_istream@DU?$char_traits@D@std@@@0@$$QAV10@AAV?$basic_string@DU?$char_traits@D@std@@V?$allocator@D@2@@0@D@Z 0040a7a0 f i GoldenManEngine.obj
 0001:00009a20       ??$getline@DU?$char_traits@D@std@@V?$allocator@D@2@@std@@YAAAV?$basic_istream@DU?$char_traits@D@std@@@0@AAV10@AAV?$basic_string@DU?$char_traits@D@std@@V?$allocator@D@2@@0@@Z 0040aa20 f i GoldenManEngine.obj
 0001:00009a80       ??$merge@P6A_NABV?$basic_string@DU?$char_traits@D@std@@V?$allocator@D@2@@std@@0@Z@?$list@V?$basic_string@DU?$char_traits@D@std@@V?$allocator@D@2@@std@@V?$allocator@V?$basic_string@DU?$char_traits@D@std@@V?$allocator@D@2@@std@@@2@@std@@QAEXAAV01@P6A_NABV?$basic_string@DU?$char_traits@D@std@@V?$allocator@D@2@@1@1@Z@Z 0040aa80 f i GoldenManEngine.obj
 0001:00009c00       ??$move@AAV?$basic_istream@DU?$char_traits@D@std@@@std@@@std@@YA$$QAV?$basic_istream@DU?$char_traits@D@std@@@0@AAV10@@Z 0040ac00 f i GoldenManEngine.obj
 0001:00009c20       ??$sort@P6A_NABV?$basic_string@DU?$char_traits@D@std@@V?$allocator@D@2@@std@@0@Z@?$list@V?$basic_string@DU?$char_traits@D@std@@V?$allocator@D@2@@std@@V?$allocator@V?$basic_string@DU?$char_traits@D@std@@V?$allocator@D@2@@std@@@2@@std@@QAEXP6A_NABV?$basic_string@DU?$char_traits@D@std@@V?$allocator@D@2@@1@0@Z@Z 0040ac20 f i GoldenManEngine.obj
 0001:00009f90       ??$swap@I@std@@YAXAAI0@Z   0040af90 f i GoldenManEngine.obj
 0001:00009ff0       ??$swap@PAU?$_List_node@V?$basic_string@DU?$char_traits@D@std@@V?$allocator@D@2@@std@@PAX@std@@@std@@YAXAAPAU?$_List_node@V?$basic_string@DU?$char_traits@D@std@@V?$allocator@D@2@@std@@PAX@0@0@Z 0040aff0 f i GoldenManEngine.obj
 0001:0000a050       ??$use_facet@V?$codecvt@DDH@std@@@std@@YAABV?$codecvt@DDH@0@ABVlocale@0@@Z 0040b050 f i GoldenManEngine.obj
 0001:0000a1a0       ??0?$_List_alloc@$0A@U?$_List_base_types@V?$basic_string@DU?$char_traits@D@std@@V?$allocator@D@2@@std@@V?$allocator@V?$basic_string@DU?$char_traits@D@std@@V?$allocator@D@2@@std@@@2@@std@@@std@@QAE@ABV?$allocator@V?$basic_string@DU?$char_traits@D@std@@V?$allocator@D@2@@std@@@1@@Z 0040b1a0 f i GoldenManEngine.obj
 0001:0000a1e0       ??0?$_List_buy@V?$basic_string@DU?$char_traits@D@std@@V?$allocator@D@2@@std@@V?$allocator@V?$basic_string@DU?$char_traits@D@std@@V?$allocator@D@2@@std@@@2@@std@@QAE@ABV?$allocator@V?$basic_string@DU?$char_traits@D@std@@V?$allocator@D@2@@std@@@1@@Z 0040b1e0 f i GoldenManEngine.obj
 0001:0000a210       ??0?$_List_const_iterator@V?$_List_val@U?$_List_simple_types@V?$basic_string@DU?$char_traits@D@std@@V?$allocator@D@2@@std@@@std@@@std@@@std@@QAE@PAU?$_List_node@V?$basic_string@DU?$char_traits@D@std@@V?$allocator@D@2@@std@@PAX@1@PBV?$_List_val@U?$_List_simple_types@V?$basic_string@DU?$char_traits@D@std@@V?$allocator@D@2@@std@@@std@@@1@@Z 0040b210 f i GoldenManEngine.obj
 0001:0000a250       ??0?$_List_const_iterator@V?$_List_val@U?$_List_simple_types@V?$basic_string@DU?$char_traits@D@std@@V?$allocator@D@2@@std@@@std@@@std@@@std@@QAE@XZ 0040b250 f i GoldenManEngine.obj
 0001:0000a280       ??0?$_List_iterator@V?$_List_val@U?$_List_simple_types@V?$basic_string@DU?$char_traits@D@std@@V?$allocator@D@2@@std@@@std@@@std@@@std@@QAE@PAU?$_List_node@V?$basic_string@DU?$char_traits@D@std@@V?$allocator@D@2@@std@@PAX@1@PBV?$_List_val@U?$_List_simple_types@V?$basic_string@DU?$char_traits@D@std@@V?$allocator@D@2@@std@@@std@@@1@@Z 0040b280 f i GoldenManEngine.obj
 0001:0000a2c0       ??0?$_List_iterator@V?$_List_val@U?$_List_simple_types@V?$basic_string@DU?$char_traits@D@std@@V?$allocator@D@2@@std@@@std@@@std@@@std@@QAE@XZ 0040b2c0 f i GoldenManEngine.obj
 0001:0000a2f0       ??0?$_List_unchecked_const_iterator@V?$_List_val@U?$_List_simple_types@V?$basic_string@DU?$char_traits@D@std@@V?$allocator@D@2@@std@@@std@@@std@@U_Iterator_base0@2@@std@@QAE@PAU?$_List_node@V?$basic_string@DU?$char_traits@D@std@@V?$allocator@D@2@@std@@PAX@1@PBV?$_List_val@U?$_List_simple_types@V?$basic_string@DU?$char_traits@D@std@@V?$allocator@D@2@@std@@@std@@@1@@Z 0040b2f0 f i GoldenManEngine.obj
 0001:0000a330       ??0?$_List_unchecked_const_iterator@V?$_List_val@U?$_List_simple_types@V?$basic_string@DU?$char_traits@D@std@@V?$allocator@D@2@@std@@@std@@@std@@U_Iterator_base0@2@@std@@QAE@XZ 0040b330 f i GoldenManEngine.obj
 0001:0000a360       ??0?$_List_unchecked_iterator@V?$_List_val@U?$_List_simple_types@V?$basic_string@DU?$char_traits@D@std@@V?$allocator@D@2@@std@@@std@@@std@@@std@@QAE@PAU?$_List_node@V?$basic_string@DU?$char_traits@D@std@@V?$allocator@D@2@@std@@PAX@1@PBV?$_List_val@U?$_List_simple_types@V?$basic_string@DU?$char_traits@D@std@@V?$allocator@D@2@@std@@@std@@@1@@Z 0040b360 f i GoldenManEngine.obj
 0001:0000a3a0       ??0?$_List_val@U?$_List_simple_types@V?$basic_string@DU?$char_traits@D@std@@V?$allocator@D@2@@std@@@std@@@std@@QAE@XZ 0040b3a0 f i GoldenManEngine.obj
 0001:0000a3e0       ??0?$_String_const_iterator@V?$_String_val@U?$_Simple_types@D@std@@@std@@@std@@QAE@PBDPBU_Container_base0@1@@Z 0040b3e0 f i GoldenManEngine.obj
 0001:0000a420       ??0?$_String_iterator@V?$_String_val@U?$_Simple_types@D@std@@@std@@@std@@QAE@PADPBU_Container_base0@1@@Z 0040b420 f i GoldenManEngine.obj
 0001:0000a460       ??0?$_Wrap_alloc@V?$allocator@D@std@@@std@@QAE@ABV?$allocator@D@1@@Z 0040b460 f i GoldenManEngine.obj
 0001:0000a490       ??0?$_Wrap_alloc@V?$allocator@U?$_List_node@V?$basic_string@DU?$char_traits@D@std@@V?$allocator@D@2@@std@@PAX@std@@@std@@@std@@QAE@XZ 0040b490 f i GoldenManEngine.obj
 0001:0000a4c0       ??0?$allocator@D@std@@QAE@ABV01@@Z 0040b4c0 f i GoldenManEngine.obj
 0001:0000a4e0       ??0?$allocator@U?$_List_node@V?$basic_string@DU?$char_traits@D@std@@V?$allocator@D@2@@std@@PAX@std@@@std@@QAE@ABV01@@Z 0040b4e0 f i GoldenManEngine.obj
 0001:0000a500       ??0?$allocator@U?$_List_node@V?$basic_string@DU?$char_traits@D@std@@V?$allocator@D@2@@std@@PAX@std@@@std@@QAE@XZ 0040b500 f i GoldenManEngine.obj
 0001:0000a520       ??0?$allocator@V?$basic_string@DU?$char_traits@D@std@@V?$allocator@D@2@@std@@@std@@QAE@XZ 0040b520 f i GoldenManEngine.obj
 0001:0000a540       ??0?$basic_filebuf@DU?$char_traits@D@std@@@std@@QAE@PAU_iobuf@@@Z 0040b540 f i GoldenManEngine.obj
 0001:0000a5d0       ??0?$basic_ifstream@DU?$char_traits@D@std@@@std@@QAE@XZ 0040b5d0 f i GoldenManEngine.obj
 0001:0000a6e0       ??0?$basic_ofstream@DU?$char_traits@D@std@@@std@@QAE@XZ 0040b6e0 f i GoldenManEngine.obj
 0001:0000a7f0       ??0?$basic_string@DU?$char_traits@D@std@@V?$allocator@D@2@@std@@QAE@ABV01@@Z 0040b7f0 f i GoldenManEngine.obj
 0001:0000a860       ??0?$basic_string@DU?$char_traits@D@std@@V?$allocator@D@2@@std@@QAE@ABV01@IIABV?$allocator@D@1@@Z 0040b860 f i GoldenManEngine.obj
 0001:0000a8c0       ??0?$basic_string@DU?$char_traits@D@std@@V?$allocator@D@2@@std@@QAE@ID@Z 0040b8c0 f i GoldenManEngine.obj
 0001:0000a920       ??0?$basic_string@DU?$char_traits@D@std@@V?$allocator@D@2@@std@@QAE@XZ 0040b920 f i GoldenManEngine.obj
 0001:0000a960       ??0?$fpos@H@std@@QAE@H_J@Z 0040b960 f i GoldenManEngine.obj
 0001:0000a9b0       ??0?$fpos@H@std@@QAE@_J@Z  0040b9b0 f i GoldenManEngine.obj
 0001:0000aa10       ??0?$list@V?$basic_string@DU?$char_traits@D@std@@V?$allocator@D@2@@std@@V?$allocator@V?$basic_string@DU?$char_traits@D@std@@V?$allocator@D@2@@std@@@2@@std@@QAE@ABV?$allocator@V?$basic_string@DU?$char_traits@D@std@@V?$allocator@D@2@@std@@@1@@Z 0040ba10 f i GoldenManEngine.obj
 0001:0000aa40       ??0?$list@V?$basic_string@DU?$char_traits@D@std@@V?$allocator@D@2@@std@@V?$allocator@V?$basic_string@DU?$char_traits@D@std@@V?$allocator@D@2@@std@@@2@@std@@QAE@XZ 0040ba40 f i GoldenManEngine.obj
 0001:0000aa70       ??0GoldenManEngine@@QAE@XZ 0040ba70 f   GoldenManEngine.obj
 0001:0000aee0       ??0_Sentry_base@?$basic_istream@DU?$char_traits@D@std@@@std@@QAE@AAV12@@Z 0040bee0 f i GoldenManEngine.obj
 0001:0000af60       ??0_Sentry_base@?$basic_ostream@DU?$char_traits@D@std@@@std@@QAE@AAV12@@Z 0040bf60 f i GoldenManEngine.obj
 0001:0000afe0       ??0sentry@?$basic_istream@DU?$char_traits@D@std@@@std@@QAE@AAV12@_N@Z 0040bfe0 f i GoldenManEngine.obj
 0001:0000b070       ??0sentry@?$basic_ostream@DU?$char_traits@D@std@@@std@@QAE@AAV12@@Z 0040c070 f i GoldenManEngine.obj
 0001:0000b180       ??1?$_List_alloc@$0A@U?$_List_base_types@V?$basic_string@DU?$char_traits@D@std@@V?$allocator@D@2@@std@@V?$allocator@V?$basic_string@DU?$char_traits@D@std@@V?$allocator@D@2@@std@@@2@@std@@@std@@QAE@XZ 0040c180 f i GoldenManEngine.obj
 0001:0000b1b0       ??1?$_List_buy@V?$basic_string@DU?$char_traits@D@std@@V?$allocator@D@2@@std@@V?$allocator@V?$basic_string@DU?$char_traits@D@std@@V?$allocator@D@2@@std@@@2@@std@@QAE@XZ 0040c1b0 f i GoldenManEngine.obj
 0001:0000b1e0       ??1?$basic_filebuf@DU?$char_traits@D@std@@@std@@UAE@XZ 0040c1e0 f i GoldenManEngine.obj
 0001:0000b240       ??1?$basic_ifstream@DU?$char_traits@D@std@@@std@@UAE@XZ 0040c240 f i GoldenManEngine.obj
 0001:0000b2b0       ??1?$basic_ofstream@DU?$char_traits@D@std@@@std@@UAE@XZ 0040c2b0 f i GoldenManEngine.obj
 0001:0000b320       ??1?$basic_string@DU?$char_traits@D@std@@V?$allocator@D@2@@std@@QAE@XZ 0040c320 f i GoldenManEngine.obj
 0001:0000b350       ??1?$list@V?$basic_string@DU?$char_traits@D@std@@V?$allocator@D@2@@std@@V?$allocator@V?$basic_string@DU?$char_traits@D@std@@V?$allocator@D@2@@std@@@2@@std@@QAE@XZ 0040c350 f i GoldenManEngine.obj
 0001:0000b380       ??1GoldenManEngine@@UAE@XZ 0040c380 f   GoldenManEngine.obj
 0001:0000b530       ??1_Sentry_base@?$basic_istream@DU?$char_traits@D@std@@@std@@QAE@XZ 0040c530 f i GoldenManEngine.obj
 0001:0000b5a0       ??1_Sentry_base@?$basic_ostream@DU?$char_traits@D@std@@@std@@QAE@XZ 0040c5a0 f i GoldenManEngine.obj
 0001:0000b610       ??1locale@std@@QAE@XZ      0040c610 f i GoldenManEngine.obj
 0001:0000b680       ??1sentry@?$basic_istream@DU?$char_traits@D@std@@@std@@QAE@XZ 0040c680 f i GoldenManEngine.obj
 0001:0000b6b0       ??1sentry@?$basic_ostream@DU?$char_traits@D@std@@@std@@QAE@XZ 0040c6b0 f i GoldenManEngine.obj
 0001:0000b6f0       ??4?$basic_string@DU?$char_traits@D@std@@V?$allocator@D@2@@std@@QAEAAV01@ABV01@@Z 0040c6f0 f i GoldenManEngine.obj
 0001:0000b790       ??4?$basic_string@DU?$char_traits@D@std@@V?$allocator@D@2@@std@@QAEAAV01@PBD@Z 0040c790 f i GoldenManEngine.obj
 0001:0000b7c0       ??8?$_List_const_iterator@V?$_List_val@U?$_List_simple_types@V?$basic_string@DU?$char_traits@D@std@@V?$allocator@D@2@@std@@@std@@@std@@@std@@QBE_NABV01@@Z 0040c7c0 f i GoldenManEngine.obj
 0001:0000b810       ??9?$_List_const_iterator@V?$_List_val@U?$_List_simple_types@V?$basic_string@DU?$char_traits@D@std@@V?$allocator@D@2@@std@@@std@@@std@@@std@@QBE_NABV01@@Z 0040c810 f i GoldenManEngine.obj
 0001:0000b860       ??B?$fpos@H@std@@QBE_JXZ   0040c860 f i GoldenManEngine.obj
 0001:0000b8a0       ??Bsentry@?$basic_istream@DU?$char_traits@D@std@@@std@@QBE_NXZ 0040c8a0 f i GoldenManEngine.obj
 0001:0000b8c0       ??Bsentry@?$basic_ostream@DU?$char_traits@D@std@@@std@@QBE_NXZ 0040c8c0 f i GoldenManEngine.obj
 0001:0000b8e0       ??D?$_List_const_iterator@V?$_List_val@U?$_List_simple_types@V?$basic_string@DU?$char_traits@D@std@@V?$allocator@D@2@@std@@@std@@@std@@@std@@QBEABV?$basic_string@DU?$char_traits@D@std@@V?$allocator@D@2@@1@XZ 0040c8e0 f i GoldenManEngine.obj
 0001:0000b910       ??D?$_List_iterator@V?$_List_val@U?$_List_simple_types@V?$basic_string@DU?$char_traits@D@std@@V?$allocator@D@2@@std@@@std@@@std@@@std@@QBEAAV?$basic_string@DU?$char_traits@D@std@@V?$allocator@D@2@@1@XZ 0040c910 f i GoldenManEngine.obj
 0001:0000b940       ??D?$_String_const_iterator@V?$_String_val@U?$_Simple_types@D@std@@@std@@@std@@QBEABDXZ 0040c940 f i GoldenManEngine.obj
 0001:0000b960       ??D?$_String_iterator@V?$_String_val@U?$_Simple_types@D@std@@@std@@@std@@QBEAADXZ 0040c960 f i GoldenManEngine.obj
 0001:0000b990       ??E?$_List_const_iterator@V?$_List_val@U?$_List_simple_types@V?$basic_string@DU?$char_traits@D@std@@V?$allocator@D@2@@std@@@std@@@std@@@std@@QAEAAV01@XZ 0040c990 f i GoldenManEngine.obj
 0001:0000b9d0       ??E?$_List_iterator@V?$_List_val@U?$_List_simple_types@V?$basic_string@DU?$char_traits@D@std@@V?$allocator@D@2@@std@@@std@@@std@@@std@@QAEAAV01@XZ 0040c9d0 f i GoldenManEngine.obj
 0001:0000ba00       ??Y?$basic_string@DU?$char_traits@D@std@@V?$allocator@D@2@@std@@QAEAAV01@ABV01@@Z 0040ca00 f i GoldenManEngine.obj
 0001:0000ba30       ??Y?$basic_string@DU?$char_traits@D@std@@V?$allocator@D@2@@std@@QAEAAV01@D@Z 0040ca30 f i GoldenManEngine.obj
 0001:0000ba60       ??_D?$basic_ifstream@DU?$char_traits@D@std@@@std@@QAEXXZ 0040ca60 f i GoldenManEngine.obj
 0001:0000baa0       ??_D?$basic_ofstream@DU?$char_traits@D@std@@@std@@QAEXXZ 0040caa0 f i GoldenManEngine.obj
 0001:0000bad4       ??_E?$basic_ifstream@DU?$char_traits@D@std@@@std@@$4PPPPPPPM@A@AEPAXI@Z 0040cad4 f i GoldenManEngine.obj
 0001:0000bade       ??_E?$basic_ofstream@DU?$char_traits@D@std@@@std@@$4PPPPPPPM@A@AEPAXI@Z 0040cade f i GoldenManEngine.obj
 0001:0000baf0       ??_G?$basic_filebuf@DU?$char_traits@D@std@@@std@@UAEPAXI@Z 0040caf0 f i GoldenManEngine.obj
 0001:0000baf0       ??_E?$basic_filebuf@DU?$char_traits@D@std@@@std@@UAEPAXI@Z 0040caf0 f i GoldenManEngine.obj
 0001:0000bb40       ??_E?$basic_ifstream@DU?$char_traits@D@std@@@std@@UAEPAXI@Z 0040cb40 f i GoldenManEngine.obj
 0001:0000bb40       ??_G?$basic_ifstream@DU?$char_traits@D@std@@@std@@UAEPAXI@Z 0040cb40 f i GoldenManEngine.obj
 0001:0000bb90       ??_G?$basic_ofstream@DU?$char_traits@D@std@@@std@@UAEPAXI@Z 0040cb90 f i GoldenManEngine.obj
 0001:0000bb90       ??_E?$basic_ofstream@DU?$char_traits@D@std@@@std@@UAEPAXI@Z 0040cb90 f i GoldenManEngine.obj
 0001:0000bbe0       ??_G?$basic_string@DU?$char_traits@D@std@@V?$allocator@D@2@@std@@QAEPAXI@Z 0040cbe0 f i GoldenManEngine.obj
 0001:0000bc30       ??_GGoldenManEngine@@UAEPAXI@Z 0040cc30 f i GoldenManEngine.obj
 0001:0000bc30       ??_EGoldenManEngine@@UAEPAXI@Z 0040cc30 f i GoldenManEngine.obj
 0001:0000bc80       ?BackgroundAnimation@GoldenManEngine@@AAEXXZ 0040cc80 f   GoldenManEngine.obj
 0001:0000bde0       ?DisplayResults@GoldenManEngine@@QAEXXZ 0040cde0 f   GoldenManEngine.obj
 0001:0000c460       ?DrawAllTiles@TileManager@@QBEXPAVBaseEngine@@PAUSDL_Surface@@HHHH@Z 0040d460 f i GoldenManEngine.obj
 0001:0000c4c0       ?DrawBackgroundString@BaseEngine@@QAEXHHPBDIPAVFont@@@Z 0040d4c0 f i GoldenManEngine.obj
 0001:0000c510       ?DrawBackgroundThickLine@BaseEngine@@QAEXHHHHIH@Z 0040d510 f i GoldenManEngine.obj
 0001:0000c590       ?DrawObjects@GoldenManEngine@@UAEXXZ 0040d590 f   GoldenManEngine.obj
 0001:0000c5d0       ?DrawStringsOnTop@GoldenManEngine@@UAEXXZ 0040d5d0 f   GoldenManEngine.obj
 0001:0000c840       ?GameAction@GoldenManEngine@@UAEXXZ 0040d840 f   GoldenManEngine.obj
 0001:0000c8e0       ?GetBackground@BaseEngine@@QAEPAUSDL_Surface@@XZ 0040d8e0 f i GoldenManEngine.obj
 0001:0000c900       ?GetName@GoldenManEngine@@QAEXH@Z 0040d900 f   GoldenManEngine.obj
 0001:0000cb30       ?GetTime@BaseEngine@@QBEHXZ 0040db30 f i GoldenManEngine.obj
 0001:0000cb50       ?IncreaseTimeOffset@BaseEngine@@QAEXH@Z 0040db50 f i GoldenManEngine.obj
 0001:0000cb80       ?InitialiseLevelObjects@GoldenManEngine@@QAEXHH@Z 0040db80 f   GoldenManEngine.obj
 0001:0000cfe0       ?InitialiseObjects@GoldenManEngine@@UAEHXZ 0040dfe0 f   GoldenManEngine.obj
 0001:0000d360       ?IsTimeToAct@BaseEngine@@QBE_NXZ 0040e360 f i GoldenManEngine.obj
 0001:0000d3b0       ?KeyDown@GoldenManEngine@@UAEXH@Z 0040e3b0 f   GoldenManEngine.obj
 0001:0000d6d0       ?MouseDown@GoldenManEngine@@UAEXHHH@Z 0040e6d0 f   GoldenManEngine.obj
 0001:0000d7d0       ?OneRoundEnd@GoldenManEngine@@QAEXXZ 0040e7d0 f   GoldenManEngine.obj
 0001:0000d8a0       ?RenderImgForBA@GoldenManEngine@@AAEXAAVImageData@@@Z 0040e8a0 f   GoldenManEngine.obj
 0001:0000d900       ?ResetAll@GoldenManEngine@@AAEXXZ 0040e900 f   GoldenManEngine.obj
 0001:0000da30       ?ResetStableObjects@GoldenManEngine@@QAEXHHH@Z 0040ea30 f   GoldenManEngine.obj
 0001:0000daa0       ?SetBaseTilesPositionOnScreen@TileManager@@QAEXHH@Z 0040eaa0 f i GoldenManEngine.obj
 0001:0000dad0       ?SetExitWithCode@BaseEngine@@QAEXH@Z 0040ead0 f i GoldenManEngine.obj
 0001:0000db00       ?SetNextLevel@GoldenManEngine@@AAEXXZ 0040eb00 f   GoldenManEngine.obj
 0001:0000dd40       ?SetSize@TileManager@@QAEXHH@Z 0040ed40 f i GoldenManEngine.obj
 0001:0000ddf0       ?SetTimeToAct@BaseEngine@@QAEXH@Z 0040edf0 f i GoldenManEngine.obj
 0001:0000de20       ?SetValue@TileManager@@QAEXHHH@Z 0040ee20 f i GoldenManEngine.obj
 0001:0000de60       ?SetupBackgroundBuffer@GoldenManEngine@@UAEXXZ 0040ee60 f   GoldenManEngine.obj
 0001:0000e760       ?StoreResults@GoldenManEngine@@QAEXXZ 0040f760 f   GoldenManEngine.obj
 0001:0000e960       ?UnDrawStrings@GoldenManEngine@@UAEXXZ 0040f960 f   GoldenManEngine.obj
 0001:0000e9b0       ?UndrawObjects@GoldenManEngine@@UAEXXZ 0040f9b0 f   GoldenManEngine.obj
 0001:0000e9f0       ?_Adopt@_Iterator_base0@std@@QAEXPBX@Z 0040f9f0 f i GoldenManEngine.obj
 0001:0000ea10       ?_Buyheadnode@?$_List_alloc@$0A@U?$_List_base_types@V?$basic_string@DU?$char_traits@D@std@@V?$allocator@D@2@@std@@V?$allocator@V?$basic_string@DU?$char_traits@D@std@@V?$allocator@D@2@@std@@@2@@std@@@std@@QAEPAU?$_List_node@V?$basic_string@DU?$char_traits@D@std@@V?$allocator@D@2@@std@@PAX@2@XZ 0040fa10 f i GoldenManEngine.obj
 0001:0000ea40       ?_Buynode0@?$_List_alloc@$0A@U?$_List_base_types@V?$basic_string@DU?$char_traits@D@std@@V?$allocator@D@2@@std@@V?$allocator@V?$basic_string@DU?$char_traits@D@std@@V?$allocator@D@2@@std@@@2@@std@@@std@@QAEPAU?$_List_node@V?$basic_string@DU?$char_traits@D@std@@V?$allocator@D@2@@std@@PAX@2@PAU32@0@Z 0040fa40 f i GoldenManEngine.obj
 0001:0000ebb0       ?_Change_alloc@?$_String_alloc@$0A@U?$_String_base_types@DV?$allocator@D@std@@@std@@@std@@QAEXABU?$_Wrap_alloc@V?$allocator@D@std@@@2@@Z 0040fbb0 f i GoldenManEngine.obj
 0001:0000ebd0       ?_Chassign@?$basic_string@DU?$char_traits@D@std@@V?$allocator@D@2@@std@@QAEXIID@Z 0040fbd0 f i GoldenManEngine.obj
 0001:0000ec40       ?_Endwrite@?$basic_filebuf@DU?$char_traits@D@std@@@std@@IAE_NXZ 0040fc40 f i GoldenManEngine.obj
 0001:0000ef00       ?_Freeheadnode@?$_List_alloc@$0A@U?$_List_base_types@V?$basic_string@DU?$char_traits@D@std@@V?$allocator@D@2@@std@@V?$allocator@V?$basic_string@DU?$char_traits@D@std@@V?$allocator@D@2@@std@@@2@@std@@@std@@QAEXPAU?$_List_node@V?$basic_string@DU?$char_traits@D@std@@V?$allocator@D@2@@std@@PAX@2@@Z 0040ff00 f i GoldenManEngine.obj
 0001:0000efa0       ?_Freenode@?$_List_buy@V?$basic_string@DU?$char_traits@D@std@@V?$allocator@D@2@@std@@V?$allocator@V?$basic_string@DU?$char_traits@D@std@@V?$allocator@D@2@@std@@@2@@std@@QAEXPAU?$_List_node@V?$basic_string@DU?$char_traits@D@std@@V?$allocator@D@2@@std@@PAX@2@@Z 0040ffa0 f i GoldenManEngine.obj
 0001:0000f080       ?_Getal@?$_List_alloc@$0A@U?$_List_base_types@V?$basic_string@DU?$char_traits@D@std@@V?$allocator@D@2@@std@@V?$allocator@V?$basic_string@DU?$char_traits@D@std@@V?$allocator@D@2@@std@@@2@@std@@@std@@QBE?AU?$_Wrap_alloc@V?$allocator@U?$_List_node@V?$basic_string@DU?$char_traits@D@std@@V?$allocator@D@2@@std@@PAX@std@@@std@@@2@XZ 00410080 f i GoldenManEngine.obj
 0001:0000f0b0       ?_Getfacet@locale@std@@QBEPBVfacet@12@I@Z 004100b0 f i GoldenManEngine.obj
 0001:0000f160       ?_Incsize@?$list@V?$basic_string@DU?$char_traits@D@std@@V?$allocator@D@2@@std@@V?$allocator@V?$basic_string@DU?$char_traits@D@std@@V?$allocator@D@2@@std@@@2@@std@@QAEXI@Z 00410160 f i GoldenManEngine.obj
 0001:0000f1c0       ?_Init@?$basic_filebuf@DU?$char_traits@D@std@@@std@@IAEXPAU_iobuf@@W4_Initfl@12@@Z 004101c0 f i GoldenManEngine.obj
 0001:0000f2b0       ?_Initcvt@?$basic_filebuf@DU?$char_traits@D@std@@@std@@IAEXPBV?$codecvt@DDH@2@@Z 004102b0 f i GoldenManEngine.obj
 0001:0000f310       ?_Lock@?$basic_filebuf@DU?$char_traits@D@std@@@std@@UAEXXZ 00410310 f i GoldenManEngine.obj
 0001:0000f350       ?_Mynode@?$_List_unchecked_const_iterator@V?$_List_val@U?$_List_simple_types@V?$basic_string@DU?$char_traits@D@std@@V?$allocator@D@2@@std@@@std@@@std@@U_Iterator_base0@2@@std@@QBEPAU?$_List_node@V?$basic_string@DU?$char_traits@D@std@@V?$allocator@D@2@@std@@PAX@2@XZ 00410350 f i GoldenManEngine.obj
 0001:0000f370       ?_Myval@?$_List_val@U?$_List_simple_types@V?$basic_string@DU?$char_traits@D@std@@V?$allocator@D@2@@std@@@std@@@std@@SAAAV?$basic_string@DU?$char_traits@D@std@@V?$allocator@D@2@@2@PAU?$_List_node@V?$basic_string@DU?$char_traits@D@std@@V?$allocator@D@2@@std@@PAX@2@@Z 00410370 f i GoldenManEngine.obj
 0001:0000f390       ?_Nextnode@?$_List_val@U?$_List_simple_types@V?$basic_string@DU?$char_traits@D@std@@V?$allocator@D@2@@std@@@std@@@std@@SAAAPAU?$_List_node@V?$basic_string@DU?$char_traits@D@std@@V?$allocator@D@2@@std@@PAX@2@PAU32@@Z 00410390 f i GoldenManEngine.obj
 0001:0000f3b0       ?_Prevnode@?$_List_val@U?$_List_simple_types@V?$basic_string@DU?$char_traits@D@std@@V?$allocator@D@2@@std@@@std@@@std@@SAAAPAU?$_List_node@V?$basic_string@DU?$char_traits@D@std@@V?$allocator@D@2@@std@@PAX@2@PAU32@@Z 004103b0 f i GoldenManEngine.obj
 0001:0000f3d0       ?_Reset_back@?$basic_filebuf@DU?$char_traits@D@std@@@std@@AAEXXZ 004103d0 f i GoldenManEngine.obj
 0001:0000f430       ?_Set_back@?$basic_filebuf@DU?$char_traits@D@std@@@std@@AAEXXZ 00410430 f i GoldenManEngine.obj
 0001:0000f4b0       ?_Splice@?$list@V?$basic_string@DU?$char_traits@D@std@@V?$allocator@D@2@@std@@V?$allocator@V?$basic_string@DU?$char_traits@D@std@@V?$allocator@D@2@@std@@@2@@std@@QAEXV?$_List_const_iterator@V?$_List_val@U?$_List_simple_types@V?$basic_string@DU?$char_traits@D@std@@V?$allocator@D@2@@std@@@std@@@std@@@2@AAV12@00I@Z 004104b0 f i GoldenManEngine.obj
 0001:0000f530       ?_Splice_same@?$list@V?$basic_string@DU?$char_traits@D@std@@V?$allocator@D@2@@std@@V?$allocator@V?$basic_string@DU?$char_traits@D@std@@V?$allocator@D@2@@std@@@2@@std@@QAEXV?$_List_const_iterator@V?$_List_val@U?$_List_simple_types@V?$basic_string@DU?$char_traits@D@std@@V?$allocator@D@2@@std@@@std@@@std@@@2@AAV12@00I@Z 00410530 f i GoldenManEngine.obj
 0001:0000f6b0       ?_Swap_alloc@?$_List_alloc@$0A@U?$_List_base_types@V?$basic_string@DU?$char_traits@D@std@@V?$allocator@D@2@@std@@V?$allocator@V?$basic_string@DU?$char_traits@D@std@@V?$allocator@D@2@@std@@@2@@std@@@std@@QAEXAAV12@@Z 004106b0 f i GoldenManEngine.obj
 0001:0000f6d0       ?_Tidy@?$list@V?$basic_string@DU?$char_traits@D@std@@V?$allocator@D@2@@std@@V?$allocator@V?$basic_string@DU?$char_traits@D@std@@V?$allocator@D@2@@std@@@2@@std@@QAEXXZ 004106d0 f i GoldenManEngine.obj
 0001:0000f700       ?_Unchecked_end@?$list@V?$basic_string@DU?$char_traits@D@std@@V?$allocator@D@2@@std@@V?$allocator@V?$basic_string@DU?$char_traits@D@std@@V?$allocator@D@2@@std@@@2@@std@@QAE?AV?$_List_unchecked_iterator@V?$_List_val@U?$_List_simple_types@V?$basic_string@DU?$char_traits@D@std@@V?$allocator@D@2@@std@@@std@@@std@@@2@XZ 00410700 f i GoldenManEngine.obj
 0001:0000f740       ?_Unlock@?$basic_filebuf@DU?$char_traits@D@std@@@std@@UAEXXZ 00410740 f i GoldenManEngine.obj
 0001:0000f780       ?allocate@?$_Wrap_alloc@V?$allocator@U?$_List_node@V?$basic_string@DU?$char_traits@D@std@@V?$allocator@D@2@@std@@PAX@std@@@std@@@std@@QAEPAU?$_List_node@V?$basic_string@DU?$char_traits@D@std@@V?$allocator@D@2@@std@@PAX@2@I@Z 00410780 f i GoldenManEngine.obj
 0001:0000f7b0       ?allocate@?$allocator@U?$_List_node@V?$basic_string@DU?$char_traits@D@std@@V?$allocator@D@2@@std@@PAX@std@@@std@@QAEPAU?$_List_node@V?$basic_string@DU?$char_traits@D@std@@V?$allocator@D@2@@std@@PAX@2@I@Z 004107b0 f i GoldenManEngine.obj
 0001:0000f7e0       ?append@?$basic_string@DU?$char_traits@D@std@@V?$allocator@D@2@@std@@QAEAAV12@ABV12@@Z 004107e0 f i GoldenManEngine.obj
 0001:0000f820       ?append@?$basic_string@DU?$char_traits@D@std@@V?$allocator@D@2@@std@@QAEAAV12@ABV12@II@Z 00410820 f i GoldenManEngine.obj
 0001:0000f910       ?append@?$basic_string@DU?$char_traits@D@std@@V?$allocator@D@2@@std@@QAEAAV12@ID@Z 00410910 f i GoldenManEngine.obj
 0001:0000f9b0       ?assign@?$basic_string@DU?$char_traits@D@std@@V?$allocator@D@2@@std@@QAEAAV12@ABV12@@Z 004109b0 f i GoldenManEngine.obj
 0001:0000f9f0       ?assign@?$basic_string@DU?$char_traits@D@std@@V?$allocator@D@2@@std@@QAEAAV12@ID@Z 004109f0 f i GoldenManEngine.obj
 0001:0000fa70       ?assign@?$char_traits@D@std@@SAPADPADID@Z 00410a70 f i GoldenManEngine.obj
 0001:0000faa0       ?begin@?$basic_string@DU?$char_traits@D@std@@V?$allocator@D@2@@std@@QAE?AV?$_String_iterator@V?$_String_val@U?$_Simple_types@D@std@@@std@@@2@XZ 00410aa0 f i GoldenManEngine.obj
 0001:0000fae0       ?begin@?$list@V?$basic_string@DU?$char_traits@D@std@@V?$allocator@D@2@@std@@V?$allocator@V?$basic_string@DU?$char_traits@D@std@@V?$allocator@D@2@@std@@@2@@std@@QAE?AV?$_List_iterator@V?$_List_val@U?$_List_simple_types@V?$basic_string@DU?$char_traits@D@std@@V?$allocator@D@2@@std@@@std@@@std@@@2@XZ 00410ae0 f i GoldenManEngine.obj
 0001:0000fb30       ?c_str@?$basic_string@DU?$char_traits@D@std@@V?$allocator@D@2@@std@@QBEPBDXZ 00410b30 f i GoldenManEngine.obj
 0001:0000fb60       ?clear@?$list@V?$basic_string@DU?$char_traits@D@std@@V?$allocator@D@2@@std@@V?$allocator@V?$basic_string@DU?$char_traits@D@std@@V?$allocator@D@2@@std@@@2@@std@@QAEXXZ 00410b60 f i GoldenManEngine.obj
 0001:0000fc10       ?close@?$basic_filebuf@DU?$char_traits@D@std@@@std@@QAEPAV12@XZ 00410c10 f i GoldenManEngine.obj
 0001:0000fca0       ?close@?$basic_ifstream@DU?$char_traits@D@std@@@std@@QAEXXZ 00410ca0 f i GoldenManEngine.obj
 0001:0000fcf0       ?close@?$basic_ofstream@DU?$char_traits@D@std@@@std@@QAEXXZ 00410cf0 f i GoldenManEngine.obj
 0001:0000fd40       ?comp@@YA_NABV?$basic_string@DU?$char_traits@D@std@@V?$allocator@D@2@@std@@0@Z 00410d40 f   GoldenManEngine.obj
 0001:0000ff10       ?compare@?$char_traits@D@std@@SAHPBD0I@Z 00410f10 f i GoldenManEngine.obj
 0001:0000ff60       ?deallocate@?$_Wrap_alloc@V?$allocator@U?$_List_node@V?$basic_string@DU?$char_traits@D@std@@V?$allocator@D@2@@std@@PAX@std@@@std@@@std@@QAEXPAU?$_List_node@V?$basic_string@DU?$char_traits@D@std@@V?$allocator@D@2@@std@@PAX@2@I@Z 00410f60 f i GoldenManEngine.obj
 0001:0000ff90       ?deallocate@?$allocator@U?$_List_node@V?$basic_string@DU?$char_traits@D@std@@V?$allocator@D@2@@std@@PAX@std@@@std@@QAEXPAU?$_List_node@V?$basic_string@DU?$char_traits@D@std@@V?$allocator@D@2@@std@@PAX@2@I@Z 00410f90 f i GoldenManEngine.obj
 0001:0000ffc0       ?empty@?$list@V?$basic_string@DU?$char_traits@D@std@@V?$allocator@D@2@@std@@V?$allocator@V?$basic_string@DU?$char_traits@D@std@@V?$allocator@D@2@@std@@@2@@std@@QBE_NXZ 00410fc0 f i GoldenManEngine.obj
 0001:00010000       ?end@?$list@V?$basic_string@DU?$char_traits@D@std@@V?$allocator@D@2@@std@@V?$allocator@V?$basic_string@DU?$char_traits@D@std@@V?$allocator@D@2@@std@@@2@@std@@QAE?AV?$_List_iterator@V?$_List_val@U?$_List_simple_types@V?$basic_string@DU?$char_traits@D@std@@V?$allocator@D@2@@std@@@std@@@std@@@2@XZ 00411000 f i GoldenManEngine.obj
 0001:00010040       ?eof@?$char_traits@D@std@@SAHXZ 00411040 f i GoldenManEngine.obj
 0001:00010060       ?eq_int_type@?$char_traits@D@std@@SA_NABH0@Z 00411060 f i GoldenManEngine.obj
 0001:000100a0       ?find@?$basic_string@DU?$char_traits@D@std@@V?$allocator@D@2@@std@@QBEIPBDI@Z 004110a0 f i GoldenManEngine.obj
 0001:000100e0       ?find@?$basic_string@DU?$char_traits@D@std@@V?$allocator@D@2@@std@@QBEIPBDII@Z 004110e0 f i GoldenManEngine.obj
 0001:000101f0       ?find@?$char_traits@D@std@@SAPBDPBDIABD@Z 004111f0 f i GoldenManEngine.obj
 0001:00010240       ?get_allocator@?$basic_string@DU?$char_traits@D@std@@V?$allocator@D@2@@std@@QBE?AV?$allocator@D@2@XZ 00411240 f i GoldenManEngine.obj
 0001:00010280       ?imbue@?$basic_filebuf@DU?$char_traits@D@std@@@std@@MAEXABVlocale@2@@Z 00411280 f i GoldenManEngine.obj
 0001:000102c0       ?is_open@?$basic_filebuf@DU?$char_traits@D@std@@@std@@QBE_NXZ 004112c0 f i GoldenManEngine.obj
 0001:00010300       ?is_open@?$basic_ifstream@DU?$char_traits@D@std@@@std@@QBE_NXZ 00411300 f i GoldenManEngine.obj
 0001:00010330       ?max_size@?$_Wrap_alloc@V?$allocator@U?$_List_node@V?$basic_string@DU?$char_traits@D@std@@V?$allocator@D@2@@std@@PAX@std@@@std@@@std@@QBEIXZ 00411330 f i GoldenManEngine.obj
 0001:00010360       ?max_size@?$allocator@U?$_List_node@V?$basic_string@DU?$char_traits@D@std@@V?$allocator@D@2@@std@@PAX@std@@@std@@QBEIXZ 00411360 f i GoldenManEngine.obj
 0001:00010380       ?max_size@?$allocator_traits@V?$allocator@U?$_List_node@V?$basic_string@DU?$char_traits@D@std@@V?$allocator@D@2@@std@@PAX@std@@@std@@@std@@SAIABV?$allocator@U?$_List_node@V?$basic_string@DU?$char_traits@D@std@@V?$allocator@D@2@@std@@PAX@std@@@2@@Z 00411380 f i GoldenManEngine.obj
 0001:000103a0       ?max_size@?$list@V?$basic_string@DU?$char_traits@D@std@@V?$allocator@D@2@@std@@V?$allocator@V?$basic_string@DU?$char_traits@D@std@@V?$allocator@D@2@@std@@@2@@std@@QBEIXZ 004113a0 f i GoldenManEngine.obj
 0001:000103d0       ?not_eof@?$char_traits@D@std@@SAHABH@Z 004113d0 f i GoldenManEngine.obj
 0001:00010430       ?open@?$basic_filebuf@DU?$char_traits@D@std@@@std@@QAEPAV12@PBDHH@Z 00411430 f i GoldenManEngine.obj
 0001:00010520       ?open@?$basic_ifstream@DU?$char_traits@D@std@@@std@@QAEXPBDHH@Z 00411520 f i GoldenManEngine.obj
 0001:000105a0       ?open@?$basic_ofstream@DU?$char_traits@D@std@@@std@@QAEXPBDHH@Z 004115a0 f i GoldenManEngine.obj
 0001:00010620       ?overflow@?$basic_filebuf@DU?$char_traits@D@std@@@std@@MAEHH@Z 00411620 f i GoldenManEngine.obj
 0001:00010a70       ?pbackfail@?$basic_filebuf@DU?$char_traits@D@std@@@std@@MAEHH@Z 00411a70 f i GoldenManEngine.obj
 0001:00010c20       ?push_back@?$list@V?$basic_string@DU?$char_traits@D@std@@V?$allocator@D@2@@std@@V?$allocator@V?$basic_string@DU?$char_traits@D@std@@V?$allocator@D@2@@std@@@2@@std@@QAEXABV?$basic_string@DU?$char_traits@D@std@@V?$allocator@D@2@@2@@Z 00411c20 f i GoldenManEngine.obj
 0001:00010c70       ?seekoff@?$basic_filebuf@DU?$char_traits@D@std@@@std@@MAE?AV?$fpos@H@2@_JHH@Z 00411c70 f i GoldenManEngine.obj
 0001:00010d90       ?seekpos@?$basic_filebuf@DU?$char_traits@D@std@@@std@@MAE?AV?$fpos@H@2@V32@H@Z 00411d90 f i GoldenManEngine.obj
 0001:00010ec0       ?seekpos@?$fpos@H@std@@QBE_JXZ 00411ec0 f i GoldenManEngine.obj
 0001:00010ef0       ?select_on_container_copy_construction@?$_Wrap_alloc@V?$allocator@D@std@@@std@@QBE?AU12@XZ 00411ef0 f i GoldenManEngine.obj
 0001:00010f30       ?select_on_container_copy_construction@?$allocator@D@std@@QBE?AV12@XZ 00411f30 f i GoldenManEngine.obj
 0001:00010f60       ?select_on_container_copy_construction@?$allocator_traits@V?$allocator@D@std@@@std@@SA?AV?$allocator@D@2@ABV32@@Z 00411f60 f i GoldenManEngine.obj
 0001:00010f90       ?set_up@GoldenManEngine@@QAEXHHH@Z 00411f90 f   GoldenManEngine.obj
 0001:00011500       ?setbuf@?$basic_filebuf@DU?$char_traits@D@std@@@std@@MAEPAV?$basic_streambuf@DU?$char_traits@D@std@@@2@PAD_J@Z 00412500 f i GoldenManEngine.obj
 0001:000115a0       ?splice@?$list@V?$basic_string@DU?$char_traits@D@std@@V?$allocator@D@2@@std@@V?$allocator@V?$basic_string@DU?$char_traits@D@std@@V?$allocator@D@2@@std@@@2@@std@@QAEXV?$_List_const_iterator@V?$_List_val@U?$_List_simple_types@V?$basic_string@DU?$char_traits@D@std@@V?$allocator@D@2@@std@@@std@@@std@@@2@AAV12@@Z 004125a0 f i GoldenManEngine.obj
 0001:00011630       ?state@?$fpos@H@std@@QBEHXZ 00412630 f i GoldenManEngine.obj
 0001:00011650       ?stoi@std@@YAHABV?$basic_string@DU?$char_traits@D@std@@V?$allocator@D@2@@1@PAIH@Z 00412650 f i GoldenManEngine.obj
 0001:00011740       ?substr@?$basic_string@DU?$char_traits@D@std@@V?$allocator@D@2@@std@@QBE?AV12@II@Z 00412740 f i GoldenManEngine.obj
 0001:000117a0       ?swap@?$list@V?$basic_string@DU?$char_traits@D@std@@V?$allocator@D@2@@std@@V?$allocator@V?$basic_string@DU?$char_traits@D@std@@V?$allocator@D@2@@std@@@2@@std@@QAEXAAV12@@Z 004127a0 f i GoldenManEngine.obj
 0001:00011890       ?sync@?$basic_filebuf@DU?$char_traits@D@std@@@std@@MAEHXZ 00412890 f i GoldenManEngine.obj
 0001:00011930       ?to_char_type@?$char_traits@D@std@@SADABH@Z 00412930 f i GoldenManEngine.obj
 0001:00011950       ?to_int_type@?$char_traits@D@std@@SAHABD@Z 00412950 f i GoldenManEngine.obj
 0001:00011970       ?uflow@?$basic_filebuf@DU?$char_traits@D@std@@@std@@MAEHXZ 00412970 f i GoldenManEngine.obj
 0001:00011d70       ?underflow@?$basic_filebuf@DU?$char_traits@D@std@@@std@@MAEHXZ 00412d70 f i GoldenManEngine.obj
 0001:00011e30       ??0GoldObject@@QAE@PAVGoldenManEngine@@HH@Z 00412e30 f   GoldObject.obj
 0001:00011f90       ??1GoldObject@@UAE@XZ      00412f90 f   GoldObject.obj
 0001:00012020       ??_GGoldObject@@UAEPAXI@Z  00413020 f i GoldObject.obj
 0001:00012020       ??_EGoldObject@@UAEPAXI@Z  00413020 f i GoldObject.obj
 0001:00012070       ?DoUpdate@GoldObject@@UAEXH@Z 00413070 f   GoldObject.obj
 0001:000120b0       ?Draw@GoldObject@@UAEXXZ   004130b0 f   GoldObject.obj
 0001:000121b0       ??0HookObject@@QAE@PAVGoldenManEngine@@HH@Z 004131b0 f   HookObject.obj
 0001:00012400       ??1HookObject@@UAE@XZ      00413400 f   HookObject.obj
 0001:000124c0       ??_EHookObject@@UAEPAXI@Z  004134c0 f i HookObject.obj
 0001:000124c0       ??_GHookObject@@UAEPAXI@Z  004134c0 f i HookObject.obj
 0001:00012510       ?DoUpdate@HookObject@@UAEXH@Z 00413510 f   HookObject.obj
 0001:000126b0       ?Draw@HookObject@@UAEXXZ   004136b0 f   HookObject.obj
 0001:00012b60       ?DrawScreenThickLine@BaseEngine@@QAEXHHHHIH@Z 00413b60 f i HookObject.obj
 0001:00012be0       ?Drop@HookObject@@QAEXXZ   00413be0 f   HookObject.obj
 0001:00012c80       ?GetForeground@BaseEngine@@QAEPAUSDL_Surface@@XZ 00413c80 f i HookObject.obj
 0001:00012ca0       ?GetTileHeight@TileManager@@QBEHXZ 00413ca0 f i HookObject.obj
 0001:00012cc0       ?GetTileManager@GoldenManEngine@@QAEAAVBombTileManager@@XZ 00413cc0 f i HookObject.obj
 0001:00012cf0       ?GetTileWidth@TileManager@@QBEHXZ 00413cf0 f i HookObject.obj
 0001:00012d10       ?HookBack@HookObject@@QAEXH@Z 00413d10 f   HookObject.obj
 0001:00012e30       ?HookDraw@HookObject@@QAEXH@Z 00413e30 f   HookObject.obj
 0001:000133f0       ?RedrawWholeScreen@DisplayableObject@@QAEXXZ 004143f0 f i HookObject.obj
 0001:00013420       ?Rotation@HookObject@@QAEXXZ 00414420 f   HookObject.obj
 0001:000134b0       ?UpdateTile@TileManager@@QAEXPAVBaseEngine@@HHH@Z 004144b0 f i HookObject.obj
 0001:00013520       ?getAngle@HookObject@@QAEHXZ 00414520 f   HookObject.obj
 0001:00013540       ?getGold@HookObject@@QAEXXZ 00414540 f   HookObject.obj
 0001:00013580       _SDL_main                  00414580 f   mainfunction.obj
 0001:000136a0       ??$?0AAHAAPAVDisplayableObject@@X@?$pair@HPAVDisplayableObject@@@std@@QAE@AAHAAPAVDisplayableObject@@@Z 004146a0 f i BaseEngine.obj
 0001:000136f0       ??$?0HPAVDisplayableObject@@X@?$pair@$$CBHPAVDisplayableObject@@@std@@QAE@$$QAU?$pair@HPAVDisplayableObject@@@1@@Z 004146f0 f i BaseEngine.obj
 0001:00013750       ??$?0U?$pair@$$CBHPAVDisplayableObject@@@std@@@?$allocator@V?$_List_unchecked_iterator@V?$_List_val@U?$_List_simple_types@U?$pair@$$CBHPAVDisplayableObject@@@std@@@std@@@std@@@std@@@std@@QAE@ABV?$allocator@U?$pair@$$CBHPAVDisplayableObject@@@std@@@1@@Z 00414750 f i BaseEngine.obj
 0001:00013770       ??$?0V?$_List_iterator@V?$_List_val@U?$_List_simple_types@U?$pair@$$CBHPAVDisplayableObject@@@std@@@std@@@std@@@std@@_NX@?$pair@V?$_List_iterator@V?$_List_val@U?$_List_simple_types@U?$pair@$$CBHPAVDisplayableObject@@@std@@@std@@@std@@@std@@_N@std@@QAE@$$QAV?$_List_iterator@V?$_List_val@U?$_List_simple_types@U?$pair@$$CBHPAVDisplayableObject@@@std@@@std@@@std@@@1@$$QA_N@Z 00414770 f i BaseEngine.obj
 0001:000137c0       ??$?0V?$allocator@U?$pair@$$CBHPAVDisplayableObject@@@std@@@std@@@?$_Wrap_alloc@V?$allocator@V?$_List_unchecked_iterator@V?$_List_val@U?$_List_simple_types@U?$pair@$$CBHPAVDisplayableObject@@@std@@@std@@@std@@@std@@@std@@@std@@QAE@ABV?$allocator@U?$pair@$$CBHPAVDisplayableObject@@@std@@@1@@Z 004147c0 f i BaseEngine.obj
 0001:000137f0       ??$GetAngle@H@@YANHHHH@Z   004147f0 f i BaseEngine.obj
 0001:000138a0       ??$GetAngle@N@@YANNNNN@Z   004148a0 f i BaseEngine.obj
 0001:00013960       ??$Swap@H@@YAXAAH0@Z       00414960 f i BaseEngine.obj
 0001:000139a0       ??$Swap@N@@YAXAAN0@Z       004149a0 f i BaseEngine.obj
 0001:000139f0       ??$_Allocate@U?$_List_node@U?$pair@$$CBHPAVDisplayableObject@@@std@@PAX@std@@@std@@YAPAU?$_List_node@U?$pair@$$CBHPAVDisplayableObject@@@std@@PAX@0@IPAU10@@Z 004149f0 f i BaseEngine.obj
 0001:00013a50       ??$_Allocate@V?$_List_unchecked_iterator@V?$_List_val@U?$_List_simple_types@U?$pair@$$CBHPAVDisplayableObject@@@std@@@std@@@std@@@std@@@std@@YAPAV?$_List_unchecked_iterator@V?$_List_val@U?$_List_simple_types@U?$pair@$$CBHPAVDisplayableObject@@@std@@@std@@@std@@@0@IPAV10@@Z 00414a50 f i BaseEngine.obj
 0001:00013ab0       ??$_Buynode@U?$pair@HPAVDisplayableObject@@@std@@@?$_List_buy@U?$pair@$$CBHPAVDisplayableObject@@@std@@V?$allocator@U?$pair@$$CBHPAVDisplayableObject@@@std@@@2@@std@@QAEPAU?$_List_node@U?$pair@$$CBHPAVDisplayableObject@@@std@@PAX@1@PAU21@0$$QAU?$pair@HPAVDisplayableObject@@@1@@Z 00414ab0 f i BaseEngine.obj
 0001:00013bd0       ??$_Buynode_if_nil@AAU?$pair@$$CBHPAVDisplayableObject@@@std@@@?$_Hash@V?$_Umap_traits@HPAVDisplayableObject@@V?$_Uhash_compare@HU?$hash@H@std@@U?$equal_to@H@2@@std@@V?$allocator@U?$pair@$$CBHPAVDisplayableObject@@@std@@@3@$0A@@std@@@std@@IAE?AV?$_List_unchecked_iterator@V?$_List_val@U?$_List_simple_types@U?$pair@$$CBHPAVDisplayableObject@@@std@@@std@@@std@@@1@AAU?$pair@$$CBHPAVDisplayableObject@@@1@V21@@Z 00414bd0 f i BaseEngine.obj
 0001:00013c00       ??$_Copy_backward@PAV?$_List_unchecked_iterator@V?$_List_val@U?$_List_simple_types@U?$pair@$$CBHPAVDisplayableObject@@@std@@@std@@@std@@@std@@PAV12@@std@@YAPAV?$_List_unchecked_iterator@V?$_List_val@U?$_List_simple_types@U?$pair@$$CBHPAVDisplayableObject@@@std@@@std@@@std@@@0@PAV10@00@Z 00414c00 f i BaseEngine.obj
 0001:00013c50       ??$_Copy_backward@PAV?$_List_unchecked_iterator@V?$_List_val@U?$_List_simple_types@U?$pair@$$CBHPAVDisplayableObject@@@std@@@std@@@std@@@std@@PAV12@@std@@YAPAV?$_List_unchecked_iterator@V?$_List_val@U?$_List_simple_types@U?$pair@$$CBHPAVDisplayableObject@@@std@@@std@@@std@@@0@PAV10@00U_Nonscalar_ptr_iterator_tag@0@@Z 00414c50 f i BaseEngine.obj
 0001:00013ca0       ??$_Destroy_range@U?$_Wrap_alloc@U?$_Wrap_alloc@V?$allocator@V?$_List_unchecked_iterator@V?$_List_val@U?$_List_simple_types@U?$pair@$$CBHPAVDisplayableObject@@@std@@@std@@@std@@@std@@@std@@@std@@@std@@@std@@YAXPAV?$_List_unchecked_iterator@V?$_List_val@U?$_List_simple_types@U?$pair@$$CBHPAVDisplayableObject@@@std@@@std@@@std@@@0@0AAU?$_Wrap_alloc@U?$_Wrap_alloc@V?$allocator@V?$_List_unchecked_iterator@V?$_List_val@U?$_List_simple_types@U?$pair@$$CBHPAVDisplayableObject@@@std@@@std@@@std@@@std@@@std@@@std@@@0@@Z 00414ca0 f i BaseEngine.obj
 0001:00013cf0       ??$_Destroy_range@U?$_Wrap_alloc@U?$_Wrap_alloc@V?$allocator@V?$_List_unchecked_iterator@V?$_List_val@U?$_List_simple_types@U?$pair@$$CBHPAVDisplayableObject@@@std@@@std@@@std@@@std@@@std@@@std@@@std@@@std@@YAXPAV?$_List_unchecked_iterator@V?$_List_val@U?$_List_simple_types@U?$pair@$$CBHPAVDisplayableObject@@@std@@@std@@@std@@@0@0AAU?$_Wrap_alloc@U?$_Wrap_alloc@V?$allocator@V?$_List_unchecked_iterator@V?$_List_val@U?$_List_simple_types@U?$pair@$$CBHPAVDisplayableObject@@@std@@@std@@@std@@@std@@@std@@@std@@@0@U_Nonscalar_ptr_iterator_tag@0@@Z 00414cf0 f i BaseEngine.obj
 0001:00013d30       ??$_Fill@PAV?$_List_unchecked_iterator@V?$_List_val@U?$_List_simple_types@U?$pair@$$CBHPAVDisplayableObject@@@std@@@std@@@std@@@std@@V12@@std@@YAXPAV?$_List_unchecked_iterator@V?$_List_val@U?$_List_simple_types@U?$pair@$$CBHPAVDisplayableObject@@@std@@@std@@@std@@@0@0ABV10@@Z 00414d30 f i BaseEngine.obj
 0001:00013d70       ??$_Fn@U?$_Wrap_alloc@V?$allocator@V?$_List_unchecked_iterator@V?$_List_val@U?$_List_simple_types@U?$pair@$$CBHPAVDisplayableObject@@@std@@@std@@@std@@@std@@@std@@@std@@@_Alloc_max_size@std@@SAIHABU?$_Wrap_alloc@V?$allocator@V?$_List_unchecked_iterator@V?$_List_val@U?$_List_simple_types@U?$pair@$$CBHPAVDisplayableObject@@@std@@@std@@@std@@@std@@@std@@@1@@Z 00414d70 f i BaseEngine.obj
 0001:00013d90       ??$_Fn@U?$_Wrap_alloc@V?$allocator@V?$_List_unchecked_iterator@V?$_List_val@U?$_List_simple_types@U?$pair@$$CBHPAVDisplayableObject@@@std@@@std@@@std@@@std@@@std@@@std@@V?$_List_unchecked_iterator@V?$_List_val@U?$_List_simple_types@U?$pair@$$CBHPAVDisplayableObject@@@std@@@std@@@std@@@2@@_Alloc_destroy@std@@SAXHAAU?$_Wrap_alloc@V?$allocator@V?$_List_unchecked_iterator@V?$_List_val@U?$_List_simple_types@U?$pair@$$CBHPAVDisplayableObject@@@std@@@std@@@std@@@std@@@std@@@1@PAV?$_List_unchecked_iterator@V?$_List_val@U?$_List_simple_types@U?$pair@$$CBHPAVDisplayableObject@@@std@@@std@@@std@@@1@@Z 00414d90 f i BaseEngine.obj
 0001:00013dc0       ??$_Fn@U?$_Wrap_alloc@V?$allocator@V?$_List_unchecked_iterator@V?$_List_val@U?$_List_simple_types@U?$pair@$$CBHPAVDisplayableObject@@@std@@@std@@@std@@@std@@@std@@@std@@V?$_List_unchecked_iterator@V?$_List_val@U?$_List_simple_types@U?$pair@$$CBHPAVDisplayableObject@@@std@@@std@@@std@@@2@ABV32@@_Alloc_construct@std@@SAXHAAU?$_Wrap_alloc@V?$allocator@V?$_List_unchecked_iterator@V?$_List_val@U?$_List_simple_types@U?$pair@$$CBHPAVDisplayableObject@@@std@@@std@@@std@@@std@@@std@@@1@PAV?$_List_unchecked_iterator@V?$_List_val@U?$_List_simple_types@U?$pair@$$CBHPAVDisplayableObject@@@std@@@std@@@std@@@1@ABV31@@Z 00414dc0 f i BaseEngine.obj
 0001:00013e00       ??$_Fn@U?$_Wrap_alloc@V?$allocator@V?$_List_unchecked_iterator@V?$_List_val@U?$_List_simple_types@U?$pair@$$CBHPAVDisplayableObject@@@std@@@std@@@std@@@std@@@std@@@std@@V?$_List_unchecked_iterator@V?$_List_val@U?$_List_simple_types@U?$pair@$$CBHPAVDisplayableObject@@@std@@@std@@@std@@@2@V32@@_Alloc_construct@std@@SAXHAAU?$_Wrap_alloc@V?$allocator@V?$_List_unchecked_iterator@V?$_List_val@U?$_List_simple_types@U?$pair@$$CBHPAVDisplayableObject@@@std@@@std@@@std@@@std@@@std@@@1@PAV?$_List_unchecked_iterator@V?$_List_val@U?$_List_simple_types@U?$pair@$$CBHPAVDisplayableObject@@@std@@@std@@@std@@@1@$$QAV31@@Z 00414e00 f i BaseEngine.obj
 0001:00013e40       ??$_Insert@AAU?$pair@$$CBHPAVDisplayableObject@@@std@@V?$_List_unchecked_iterator@V?$_List_val@U?$_List_simple_types@U?$pair@$$CBHPAVDisplayableObject@@@std@@@std@@@std@@@2@@?$_Hash@V?$_Umap_traits@HPAVDisplayableObject@@V?$_Uhash_compare@HU?$hash@H@std@@U?$equal_to@H@2@@std@@V?$allocator@U?$pair@$$CBHPAVDisplayableObject@@@std@@@3@$0A@@std@@@std@@IAE?AU?$pair@V?$_List_iterator@V?$_List_val@U?$_List_simple_types@U?$pair@$$CBHPAVDisplayableObject@@@std@@@std@@@std@@@std@@_N@1@AAU?$pair@$$CBHPAVDisplayableObject@@@1@V?$_List_unchecked_iterator@V?$_List_val@U?$_List_simple_types@U?$pair@$$CBHPAVDisplayableObject@@@std@@@std@@@std@@@1@@Z 00414e40 f i BaseEngine.obj
 0001:000141f0       ??$_Insert@U?$pair@HPAVDisplayableObject@@@std@@@?$list@U?$pair@$$CBHPAVDisplayableObject@@@std@@V?$allocator@U?$pair@$$CBHPAVDisplayableObject@@@std@@@2@@std@@QAEXV?$_List_unchecked_const_iterator@V?$_List_val@U?$_List_simple_types@U?$pair@$$CBHPAVDisplayableObject@@@std@@@std@@@std@@U_Iterator_base0@2@@1@$$QAU?$pair@HPAVDisplayableObject@@@1@@Z 004151f0 f i BaseEngine.obj
 0001:000142a0       ??$_Kfn@$$CBHPAVDisplayableObject@@@?$_Umap_traits@HPAVDisplayableObject@@V?$_Uhash_compare@HU?$hash@H@std@@U?$equal_to@H@2@@std@@V?$allocator@U?$pair@$$CBHPAVDisplayableObject@@@std@@@3@$0A@@std@@SAABHABU?$pair@$$CBHPAVDisplayableObject@@@1@@Z 004152a0 f i BaseEngine.obj
 0001:000142c0       ??$_Ptr_cat@V?$_List_unchecked_iterator@V?$_List_val@U?$_List_simple_types@U?$pair@$$CBHPAVDisplayableObject@@@std@@@std@@@std@@@std@@V12@@std@@YA?AU_Nonscalar_ptr_iterator_tag@0@PAV?$_List_unchecked_iterator@V?$_List_val@U?$_List_simple_types@U?$pair@$$CBHPAVDisplayableObject@@@std@@@std@@@std@@@0@0@Z 004152c0 f i BaseEngine.obj
 0001:000142e0       ??$_Rechecked@PAV?$_List_unchecked_iterator@V?$_List_val@U?$_List_simple_types@U?$pair@$$CBHPAVDisplayableObject@@@std@@@std@@@std@@@std@@PAV12@@std@@YAAAPAV?$_List_unchecked_iterator@V?$_List_val@U?$_List_simple_types@U?$pair@$$CBHPAVDisplayableObject@@@std@@@std@@@std@@@0@AAPAV10@PAV10@@Z 004152e0 f i BaseEngine.obj
 0001:00014310       ??$_Umove@PAV?$_List_unchecked_iterator@V?$_List_val@U?$_List_simple_types@U?$pair@$$CBHPAVDisplayableObject@@@std@@@std@@@std@@@std@@@?$vector@V?$_List_unchecked_iterator@V?$_List_val@U?$_List_simple_types@U?$pair@$$CBHPAVDisplayableObject@@@std@@@std@@@std@@@std@@U?$_Wrap_alloc@V?$allocator@V?$_List_unchecked_iterator@V?$_List_val@U?$_List_simple_types@U?$pair@$$CBHPAVDisplayableObject@@@std@@@std@@@std@@@std@@@std@@@2@@std@@IAEPAV?$_List_unchecked_iterator@V?$_List_val@U?$_List_simple_types@U?$pair@$$CBHPAVDisplayableObject@@@std@@@std@@@std@@@1@PAV21@00@Z 00415310 f i BaseEngine.obj
 0001:00014360       ??$_Unchecked@PAV?$_List_unchecked_iterator@V?$_List_val@U?$_List_simple_types@U?$pair@$$CBHPAVDisplayableObject@@@std@@@std@@@std@@@std@@@std@@YAPAV?$_List_unchecked_iterator@V?$_List_val@U?$_List_simple_types@U?$pair@$$CBHPAVDisplayableObject@@@std@@@std@@@std@@@0@PAV10@@Z 00415360 f i BaseEngine.obj
 0001:00014380       ??$_Uninit_fill_n@PAV?$_List_unchecked_iterator@V?$_List_val@U?$_List_simple_types@U?$pair@$$CBHPAVDisplayableObject@@@std@@@std@@@std@@@std@@IV12@U?$_Wrap_alloc@V?$allocator@V?$_List_unchecked_iterator@V?$_List_val@U?$_List_simple_types@U?$pair@$$CBHPAVDisplayableObject@@@std@@@std@@@std@@@std@@@std@@@2@V12@@std@@YAXPAV?$_List_unchecked_iterator@V?$_List_val@U?$_List_simple_types@U?$pair@$$CBHPAVDisplayableObject@@@std@@@std@@@std@@@0@IPBV10@AAU?$_Wrap_alloc@U?$_Wrap_alloc@V?$allocator@V?$_List_unchecked_iterator@V?$_List_val@U?$_List_simple_types@U?$pair@$$CBHPAVDisplayableObject@@@std@@@std@@@std@@@std@@@std@@@std@@@0@0U_Nonscalar_ptr_iterator_tag@0@@Z 00415380 f i BaseEngine.obj
 0001:00014470       ??$_Uninit_move@PAV?$_List_unchecked_iterator@V?$_List_val@U?$_List_simple_types@U?$pair@$$CBHPAVDisplayableObject@@@std@@@std@@@std@@@std@@PAV12@U?$_Wrap_alloc@U?$_Wrap_alloc@V?$allocator@V?$_List_unchecked_iterator@V?$_List_val@U?$_List_simple_types@U?$pair@$$CBHPAVDisplayableObject@@@std@@@std@@@std@@@std@@@std@@@std@@@2@@std@@YAPAV?$_List_unchecked_iterator@V?$_List_val@U?$_List_simple_types@U?$pair@$$CBHPAVDisplayableObject@@@std@@@std@@@std@@@0@PAV10@00AAU?$_Wrap_alloc@U?$_Wrap_alloc@V?$allocator@V?$_List_unchecked_iterator@V?$_List_val@U?$_List_simple_types@U?$pair@$$CBHPAVDisplayableObject@@@std@@@std@@@std@@@std@@@std@@@std@@@0@@Z 00415470 f i BaseEngine.obj
 0001:000144d0       ??$_Uninit_move@PAV?$_List_unchecked_iterator@V?$_List_val@U?$_List_simple_types@U?$pair@$$CBHPAVDisplayableObject@@@std@@@std@@@std@@@std@@PAV12@U?$_Wrap_alloc@V?$allocator@V?$_List_unchecked_iterator@V?$_List_val@U?$_List_simple_types@U?$pair@$$CBHPAVDisplayableObject@@@std@@@std@@@std@@@std@@@std@@@2@V12@@std@@YAPAV?$_List_unchecked_iterator@V?$_List_val@U?$_List_simple_types@U?$pair@$$CBHPAVDisplayableObject@@@std@@@std@@@std@@@0@PAV10@00AAU?$_Wrap_alloc@U?$_Wrap_alloc@V?$allocator@V?$_List_unchecked_iterator@V?$_List_val@U?$_List_simple_types@U?$pair@$$CBHPAVDisplayableObject@@@std@@@std@@@std@@@std@@@std@@@std@@@0@0U_Nonscalar_ptr_iterator_tag@0@@Z 004154d0 f i BaseEngine.obj
 0001:000145c0       ??$_Uninitialized_fill_n@PAV?$_List_unchecked_iterator@V?$_List_val@U?$_List_simple_types@U?$pair@$$CBHPAVDisplayableObject@@@std@@@std@@@std@@@std@@IV12@U?$_Wrap_alloc@U?$_Wrap_alloc@V?$allocator@V?$_List_unchecked_iterator@V?$_List_val@U?$_List_simple_types@U?$pair@$$CBHPAVDisplayableObject@@@std@@@std@@@std@@@std@@@std@@@std@@@2@@std@@YAXPAV?$_List_unchecked_iterator@V?$_List_val@U?$_List_simple_types@U?$pair@$$CBHPAVDisplayableObject@@@std@@@std@@@std@@@0@IPBV10@AAU?$_Wrap_alloc@U?$_Wrap_alloc@V?$allocator@V?$_List_unchecked_iterator@V?$_List_val@U?$_List_simple_types@U?$pair@$$CBHPAVDisplayableObject@@@std@@@std@@@std@@@std@@@std@@@std@@@0@@Z 004155c0 f i BaseEngine.obj
 0001:00014620       ??$_Uninitialized_move@PAV?$_List_unchecked_iterator@V?$_List_val@U?$_List_simple_types@U?$pair@$$CBHPAVDisplayableObject@@@std@@@std@@@std@@@std@@PAV12@U?$_Wrap_alloc@U?$_Wrap_alloc@V?$allocator@V?$_List_unchecked_iterator@V?$_List_val@U?$_List_simple_types@U?$pair@$$CBHPAVDisplayableObject@@@std@@@std@@@std@@@std@@@std@@@std@@@2@@std@@YAPAV?$_List_unchecked_iterator@V?$_List_val@U?$_List_simple_types@U?$pair@$$CBHPAVDisplayableObject@@@std@@@std@@@std@@@0@PAV10@00AAU?$_Wrap_alloc@U?$_Wrap_alloc@V?$allocator@V?$_List_unchecked_iterator@V?$_List_val@U?$_List_simple_types@U?$pair@$$CBHPAVDisplayableObject@@@std@@@std@@@std@@@std@@@std@@@std@@@0@@Z 00415620 f i BaseEngine.obj
 0001:00014690       ??$_Val_type@PAV?$_List_unchecked_iterator@V?$_List_val@U?$_List_simple_types@U?$pair@$$CBHPAVDisplayableObject@@@std@@@std@@@std@@@std@@@std@@YAPAV?$_List_unchecked_iterator@V?$_List_val@U?$_List_simple_types@U?$pair@$$CBHPAVDisplayableObject@@@std@@@std@@@std@@@0@PAV10@@Z 00415690 f i BaseEngine.obj
 0001:000146b0       ??$addressof@$$CBV?$_List_unchecked_iterator@V?$_List_val@U?$_List_simple_types@U?$pair@$$CBHPAVDisplayableObject@@@std@@@std@@@std@@@std@@@std@@YAPBV?$_List_unchecked_iterator@V?$_List_val@U?$_List_simple_types@U?$pair@$$CBHPAVDisplayableObject@@@std@@@std@@@std@@@0@ABV10@@Z 004156b0 f i BaseEngine.obj
 0001:000146d0       ??$addressof@PAU?$_List_node@U?$pair@$$CBHPAVDisplayableObject@@@std@@PAX@std@@@std@@YAPAPAU?$_List_node@U?$pair@$$CBHPAVDisplayableObject@@@std@@PAX@0@AAPAU10@@Z 004156d0 f i BaseEngine.obj
 0001:000146f0       ??$addressof@U?$pair@$$CBHPAVDisplayableObject@@@std@@@std@@YAPAU?$pair@$$CBHPAVDisplayableObject@@@0@AAU10@@Z 004156f0 f i BaseEngine.obj
 0001:00014710       ??$addressof@V?$_List_unchecked_iterator@V?$_List_val@U?$_List_simple_types@U?$pair@$$CBHPAVDisplayableObject@@@std@@@std@@@std@@@std@@@std@@YAPAV?$_List_unchecked_iterator@V?$_List_val@U?$_List_simple_types@U?$pair@$$CBHPAVDisplayableObject@@@std@@@std@@@std@@@0@AAV10@@Z 00415710 f i BaseEngine.obj
 0001:00014730       ??$construct@PAU?$_List_node@U?$pair@$$CBHPAVDisplayableObject@@@std@@PAX@std@@AAPAU12@@?$_Wrap_alloc@V?$allocator@U?$_List_node@U?$pair@$$CBHPAVDisplayableObject@@@std@@PAX@std@@@std@@@std@@QAEXPAPAU?$_List_node@U?$pair@$$CBHPAVDisplayableObject@@@std@@PAX@1@AAPAU21@@Z 00415730 f i BaseEngine.obj
 0001:00014770       ??$construct@PAU?$_List_node@U?$pair@$$CBHPAVDisplayableObject@@@std@@PAX@std@@AAPAU12@@?$allocator@U?$_List_node@U?$pair@$$CBHPAVDisplayableObject@@@std@@PAX@std@@@std@@QAEXPAPAU?$_List_node@U?$pair@$$CBHPAVDisplayableObject@@@std@@PAX@1@AAPAU21@@Z 00415770 f i BaseEngine.obj
 0001:00014820       ??$construct@PAU?$_List_node@U?$pair@$$CBHPAVDisplayableObject@@@std@@PAX@std@@AAPAU12@@?$allocator_traits@V?$allocator@U?$_List_node@U?$pair@$$CBHPAVDisplayableObject@@@std@@PAX@std@@@std@@@std@@SAXAAV?$allocator@U?$_List_node@U?$pair@$$CBHPAVDisplayableObject@@@std@@PAX@std@@@1@PAPAU?$_List_node@U?$pair@$$CBHPAVDisplayableObject@@@std@@PAX@1@AAPAU31@@Z 00415820 f i BaseEngine.obj
 0001:00014860       ??$construct@U?$pair@$$CBHPAVDisplayableObject@@@std@@U?$pair@HPAVDisplayableObject@@@2@@?$_Wrap_alloc@V?$allocator@U?$_List_node@U?$pair@$$CBHPAVDisplayableObject@@@std@@PAX@std@@@std@@@std@@QAEXPAU?$pair@$$CBHPAVDisplayableObject@@@1@$$QAU?$pair@HPAVDisplayableObject@@@1@@Z 00415860 f i BaseEngine.obj
 0001:000148a0       ??$construct@U?$pair@$$CBHPAVDisplayableObject@@@std@@U?$pair@HPAVDisplayableObject@@@2@@?$allocator@U?$_List_node@U?$pair@$$CBHPAVDisplayableObject@@@std@@PAX@std@@@std@@QAEXPAU?$pair@$$CBHPAVDisplayableObject@@@1@$$QAU?$pair@HPAVDisplayableObject@@@1@@Z 004158a0 f i BaseEngine.obj
 0001:00014950       ??$construct@U?$pair@$$CBHPAVDisplayableObject@@@std@@U?$pair@HPAVDisplayableObject@@@2@@?$allocator_traits@V?$allocator@U?$_List_node@U?$pair@$$CBHPAVDisplayableObject@@@std@@PAX@std@@@std@@@std@@SAXAAV?$allocator@U?$_List_node@U?$pair@$$CBHPAVDisplayableObject@@@std@@PAX@std@@@1@PAU?$pair@$$CBHPAVDisplayableObject@@@1@$$QAU?$pair@HPAVDisplayableObject@@@1@@Z 00415950 f i BaseEngine.obj
 0001:00014990       ??$construct@V?$_List_unchecked_iterator@V?$_List_val@U?$_List_simple_types@U?$pair@$$CBHPAVDisplayableObject@@@std@@@std@@@std@@@std@@ABV12@@?$_Wrap_alloc@U?$_Wrap_alloc@V?$allocator@V?$_List_unchecked_iterator@V?$_List_val@U?$_List_simple_types@U?$pair@$$CBHPAVDisplayableObject@@@std@@@std@@@std@@@std@@@std@@@std@@@std@@QAEXPAV?$_List_unchecked_iterator@V?$_List_val@U?$_List_simple_types@U?$pair@$$CBHPAVDisplayableObject@@@std@@@std@@@std@@@1@ABV21@@Z 00415990 f i BaseEngine.obj
 0001:000149d0       ??$construct@V?$_List_unchecked_iterator@V?$_List_val@U?$_List_simple_types@U?$pair@$$CBHPAVDisplayableObject@@@std@@@std@@@std@@@std@@ABV12@@?$_Wrap_alloc@V?$allocator@V?$_List_unchecked_iterator@V?$_List_val@U?$_List_simple_types@U?$pair@$$CBHPAVDisplayableObject@@@std@@@std@@@std@@@std@@@std@@@std@@QAEXPAV?$_List_unchecked_iterator@V?$_List_val@U?$_List_simple_types@U?$pair@$$CBHPAVDisplayableObject@@@std@@@std@@@std@@@1@ABV21@@Z 004159d0 f i BaseEngine.obj
 0001:00014a10       ??$construct@V?$_List_unchecked_iterator@V?$_List_val@U?$_List_simple_types@U?$pair@$$CBHPAVDisplayableObject@@@std@@@std@@@std@@@std@@ABV12@@?$allocator_traits@U?$_Wrap_alloc@V?$allocator@V?$_List_unchecked_iterator@V?$_List_val@U?$_List_simple_types@U?$pair@$$CBHPAVDisplayableObject@@@std@@@std@@@std@@@std@@@std@@@std@@@std@@SAXAAU?$_Wrap_alloc@V?$allocator@V?$_List_unchecked_iterator@V?$_List_val@U?$_List_simple_types@U?$pair@$$CBHPAVDisplayableObject@@@std@@@std@@@std@@@std@@@std@@@1@PAV?$_List_unchecked_iterator@V?$_List_val@U?$_List_simple_types@U?$pair@$$CBHPAVDisplayableObject@@@std@@@std@@@std@@@1@ABV31@@Z 00415a10 f i BaseEngine.obj
 0001:00014a50       ??$construct@V?$_List_unchecked_iterator@V?$_List_val@U?$_List_simple_types@U?$pair@$$CBHPAVDisplayableObject@@@std@@@std@@@std@@@std@@ABV12@@?$allocator_traits@V?$allocator@V?$_List_unchecked_iterator@V?$_List_val@U?$_List_simple_types@U?$pair@$$CBHPAVDisplayableObject@@@std@@@std@@@std@@@std@@@std@@@std@@SAXAAV?$allocator@V?$_List_unchecked_iterator@V?$_List_val@U?$_List_simple_types@U?$pair@$$CBHPAVDisplayableObject@@@std@@@std@@@std@@@std@@@1@PAV?$_List_unchecked_iterator@V?$_List_val@U?$_List_simple_types@U?$pair@$$CBHPAVDisplayableObject@@@std@@@std@@@std@@@1@ABV31@@Z 00415a50 f i BaseEngine.obj
 0001:00014a90       ??$construct@V?$_List_unchecked_iterator@V?$_List_val@U?$_List_simple_types@U?$pair@$$CBHPAVDisplayableObject@@@std@@@std@@@std@@@std@@V12@@?$_Wrap_alloc@U?$_Wrap_alloc@V?$allocator@V?$_List_unchecked_iterator@V?$_List_val@U?$_List_simple_types@U?$pair@$$CBHPAVDisplayableObject@@@std@@@std@@@std@@@std@@@std@@@std@@@std@@QAEXPAV?$_List_unchecked_iterator@V?$_List_val@U?$_List_simple_types@U?$pair@$$CBHPAVDisplayableObject@@@std@@@std@@@std@@@1@$$QAV21@@Z 00415a90 f i BaseEngine.obj
 0001:00014ad0       ??$construct@V?$_List_unchecked_iterator@V?$_List_val@U?$_List_simple_types@U?$pair@$$CBHPAVDisplayableObject@@@std@@@std@@@std@@@std@@V12@@?$_Wrap_alloc@V?$allocator@V?$_List_unchecked_iterator@V?$_List_val@U?$_List_simple_types@U?$pair@$$CBHPAVDisplayableObject@@@std@@@std@@@std@@@std@@@std@@@std@@QAEXPAV?$_List_unchecked_iterator@V?$_List_val@U?$_List_simple_types@U?$pair@$$CBHPAVDisplayableObject@@@std@@@std@@@std@@@1@$$QAV21@@Z 00415ad0 f i BaseEngine.obj
 0001:00014b10       ??$construct@V?$_List_unchecked_iterator@V?$_List_val@U?$_List_simple_types@U?$pair@$$CBHPAVDisplayableObject@@@std@@@std@@@std@@@std@@V12@@?$allocator@V?$_List_unchecked_iterator@V?$_List_val@U?$_List_simple_types@U?$pair@$$CBHPAVDisplayableObject@@@std@@@std@@@std@@@std@@@std@@QAEXPAV?$_List_unchecked_iterator@V?$_List_val@U?$_List_simple_types@U?$pair@$$CBHPAVDisplayableObject@@@std@@@std@@@std@@@1@$$QAV21@@Z 00415b10 f i BaseEngine.obj
 0001:00014bc0       ??$construct@V?$_List_unchecked_iterator@V?$_List_val@U?$_List_simple_types@U?$pair@$$CBHPAVDisplayableObject@@@std@@@std@@@std@@@std@@V12@@?$allocator_traits@U?$_Wrap_alloc@V?$allocator@V?$_List_unchecked_iterator@V?$_List_val@U?$_List_simple_types@U?$pair@$$CBHPAVDisplayableObject@@@std@@@std@@@std@@@std@@@std@@@std@@@std@@SAXAAU?$_Wrap_alloc@V?$allocator@V?$_List_unchecked_iterator@V?$_List_val@U?$_List_simple_types@U?$pair@$$CBHPAVDisplayableObject@@@std@@@std@@@std@@@std@@@std@@@1@PAV?$_List_unchecked_iterator@V?$_List_val@U?$_List_simple_types@U?$pair@$$CBHPAVDisplayableObject@@@std@@@std@@@std@@@1@$$QAV31@@Z 00415bc0 f i BaseEngine.obj
 0001:00014c00       ??$construct@V?$_List_unchecked_iterator@V?$_List_val@U?$_List_simple_types@U?$pair@$$CBHPAVDisplayableObject@@@std@@@std@@@std@@@std@@V12@@?$allocator_traits@V?$allocator@V?$_List_unchecked_iterator@V?$_List_val@U?$_List_simple_types@U?$pair@$$CBHPAVDisplayableObject@@@std@@@std@@@std@@@std@@@std@@@std@@SAXAAV?$allocator@V?$_List_unchecked_iterator@V?$_List_val@U?$_List_simple_types@U?$pair@$$CBHPAVDisplayableObject@@@std@@@std@@@std@@@std@@@1@PAV?$_List_unchecked_iterator@V?$_List_val@U?$_List_simple_types@U?$pair@$$CBHPAVDisplayableObject@@@std@@@std@@@std@@@1@$$QAV31@@Z 00415c00 f i BaseEngine.obj
 0001:00014c40       ??$destroy@PAU?$_List_node@U?$pair@$$CBHPAVDisplayableObject@@@std@@PAX@std@@@?$_Wrap_alloc@V?$allocator@U?$_List_node@U?$pair@$$CBHPAVDisplayableObject@@@std@@PAX@std@@@std@@@std@@QAEXPAPAU?$_List_node@U?$pair@$$CBHPAVDisplayableObject@@@std@@PAX@1@@Z 00415c40 f i BaseEngine.obj
 0001:00014c70       ??$destroy@PAU?$_List_node@U?$pair@$$CBHPAVDisplayableObject@@@std@@PAX@std@@@?$allocator@U?$_List_node@U?$pair@$$CBHPAVDisplayableObject@@@std@@PAX@std@@@std@@QAEXPAPAU?$_List_node@U?$pair@$$CBHPAVDisplayableObject@@@std@@PAX@1@@Z 00415c70 f i BaseEngine.obj
 0001:00014c90       ??$destroy@PAU?$_List_node@U?$pair@$$CBHPAVDisplayableObject@@@std@@PAX@std@@@?$allocator_traits@V?$allocator@U?$_List_node@U?$pair@$$CBHPAVDisplayableObject@@@std@@PAX@std@@@std@@@std@@SAXAAV?$allocator@U?$_List_node@U?$pair@$$CBHPAVDisplayableObject@@@std@@PAX@std@@@1@PAPAU?$_List_node@U?$pair@$$CBHPAVDisplayableObject@@@std@@PAX@1@@Z 00415c90 f i BaseEngine.obj
 0001:00014cc0       ??$destroy@U?$pair@$$CBHPAVDisplayableObject@@@std@@@?$_Wrap_alloc@V?$allocator@U?$_List_node@U?$pair@$$CBHPAVDisplayableObject@@@std@@PAX@std@@@std@@@std@@QAEXPAU?$pair@$$CBHPAVDisplayableObject@@@1@@Z 00415cc0 f i BaseEngine.obj
 0001:00014cf0       ??$destroy@U?$pair@$$CBHPAVDisplayableObject@@@std@@@?$allocator@U?$_List_node@U?$pair@$$CBHPAVDisplayableObject@@@std@@PAX@std@@@std@@QAEXPAU?$pair@$$CBHPAVDisplayableObject@@@1@@Z 00415cf0 f i BaseEngine.obj
 0001:00014d10       ??$destroy@U?$pair@$$CBHPAVDisplayableObject@@@std@@@?$allocator_traits@V?$allocator@U?$_List_node@U?$pair@$$CBHPAVDisplayableObject@@@std@@PAX@std@@@std@@@std@@SAXAAV?$allocator@U?$_List_node@U?$pair@$$CBHPAVDisplayableObject@@@std@@PAX@std@@@1@PAU?$pair@$$CBHPAVDisplayableObject@@@1@@Z 00415d10 f i BaseEngine.obj
 0001:00014d40       ??$destroy@V?$_List_unchecked_iterator@V?$_List_val@U?$_List_simple_types@U?$pair@$$CBHPAVDisplayableObject@@@std@@@std@@@std@@@std@@@?$_Wrap_alloc@U?$_Wrap_alloc@V?$allocator@V?$_List_unchecked_iterator@V?$_List_val@U?$_List_simple_types@U?$pair@$$CBHPAVDisplayableObject@@@std@@@std@@@std@@@std@@@std@@@std@@@std@@QAEXPAV?$_List_unchecked_iterator@V?$_List_val@U?$_List_simple_types@U?$pair@$$CBHPAVDisplayableObject@@@std@@@std@@@std@@@1@@Z 00415d40 f i BaseEngine.obj
 0001:00014d70       ??$destroy@V?$_List_unchecked_iterator@V?$_List_val@U?$_List_simple_types@U?$pair@$$CBHPAVDisplayableObject@@@std@@@std@@@std@@@std@@@?$_Wrap_alloc@V?$allocator@V?$_List_unchecked_iterator@V?$_List_val@U?$_List_simple_types@U?$pair@$$CBHPAVDisplayableObject@@@std@@@std@@@std@@@std@@@std@@@std@@QAEXPAV?$_List_unchecked_iterator@V?$_List_val@U?$_List_simple_types@U?$pair@$$CBHPAVDisplayableObject@@@std@@@std@@@std@@@1@@Z 00415d70 f i BaseEngine.obj
 0001:00014da0       ??$destroy@V?$_List_unchecked_iterator@V?$_List_val@U?$_List_simple_types@U?$pair@$$CBHPAVDisplayableObject@@@std@@@std@@@std@@@std@@@?$allocator@V?$_List_unchecked_iterator@V?$_List_val@U?$_List_simple_types@U?$pair@$$CBHPAVDisplayableObject@@@std@@@std@@@std@@@std@@@std@@QAEXPAV?$_List_unchecked_iterator@V?$_List_val@U?$_List_simple_types@U?$pair@$$CBHPAVDisplayableObject@@@std@@@std@@@std@@@1@@Z 00415da0 f i BaseEngine.obj
 0001:00014dc0       ??$destroy@V?$_List_unchecked_iterator@V?$_List_val@U?$_List_simple_types@U?$pair@$$CBHPAVDisplayableObject@@@std@@@std@@@std@@@std@@@?$allocator_traits@U?$_Wrap_alloc@V?$allocator@V?$_List_unchecked_iterator@V?$_List_val@U?$_List_simple_types@U?$pair@$$CBHPAVDisplayableObject@@@std@@@std@@@std@@@std@@@std@@@std@@@std@@SAXAAU?$_Wrap_alloc@V?$allocator@V?$_List_unchecked_iterator@V?$_List_val@U?$_List_simple_types@U?$pair@$$CBHPAVDisplayableObject@@@std@@@std@@@std@@@std@@@std@@@1@PAV?$_List_unchecked_iterator@V?$_List_val@U?$_List_simple_types@U?$pair@$$CBHPAVDisplayableObject@@@std@@@std@@@std@@@1@@Z 00415dc0 f i BaseEngine.obj
 0001:00014df0       ??$destroy@V?$_List_unchecked_iterator@V?$_List_val@U?$_List_simple_types@U?$pair@$$CBHPAVDisplayableObject@@@std@@@std@@@std@@@std@@@?$allocator_traits@V?$allocator@V?$_List_unchecked_iterator@V?$_List_val@U?$_List_simple_types@U?$pair@$$CBHPAVDisplayableObject@@@std@@@std@@@std@@@std@@@std@@@std@@SAXAAV?$allocator@V?$_List_unchecked_iterator@V?$_List_val@U?$_List_simple_types@U?$pair@$$CBHPAVDisplayableObject@@@std@@@std@@@std@@@std@@@1@PAV?$_List_unchecked_iterator@V?$_List_val@U?$_List_simple_types@U?$pair@$$CBHPAVDisplayableObject@@@std@@@std@@@std@@@1@@Z 00415df0 f i BaseEngine.obj
 0001:00014e20       ??$emplace_front@U?$pair@HPAVDisplayableObject@@@std@@@?$list@U?$pair@$$CBHPAVDisplayableObject@@@std@@V?$allocator@U?$pair@$$CBHPAVDisplayableObject@@@std@@@2@@std@@QAEX$$QAU?$pair@HPAVDisplayableObject@@@1@@Z 00415e20 f i BaseEngine.obj
 0001:00014e70       ??$fill@PAV?$_List_unchecked_iterator@V?$_List_val@U?$_List_simple_types@U?$pair@$$CBHPAVDisplayableObject@@@std@@@std@@@std@@@std@@V12@@std@@YAXPAV?$_List_unchecked_iterator@V?$_List_val@U?$_List_simple_types@U?$pair@$$CBHPAVDisplayableObject@@@std@@@std@@@std@@@0@0ABV10@@Z 00415e70 f i BaseEngine.obj
 0001:00014ec0       ??$forward@AAH@std@@YAAAHAAH@Z 00415ec0 f i BaseEngine.obj
 0001:00014ee0       ??$forward@AAPAU?$_List_node@U?$pair@$$CBHPAVDisplayableObject@@@std@@PAX@std@@@std@@YAAAPAU?$_List_node@U?$pair@$$CBHPAVDisplayableObject@@@std@@PAX@0@AAPAU10@@Z 00415ee0 f i BaseEngine.obj
 0001:00014f00       ??$forward@AAPAVDisplayableObject@@@std@@YAAAPAVDisplayableObject@@AAPAV1@@Z 00415f00 f i BaseEngine.obj
 0001:00014f20       ??$forward@AAU?$pair@$$CBHPAVDisplayableObject@@@std@@@std@@YAAAU?$pair@$$CBHPAVDisplayableObject@@@0@AAU10@@Z 00415f20 f i BaseEngine.obj
 0001:00014f40       ??$forward@ABV?$_List_unchecked_iterator@V?$_List_val@U?$_List_simple_types@U?$pair@$$CBHPAVDisplayableObject@@@std@@@std@@@std@@@std@@@std@@YAABV?$_List_unchecked_iterator@V?$_List_val@U?$_List_simple_types@U?$pair@$$CBHPAVDisplayableObject@@@std@@@std@@@std@@@0@ABV10@@Z 00415f40 f i BaseEngine.obj
 0001:00014f60       ??$forward@H@std@@YA$$QAHAAH@Z 00415f60 f i BaseEngine.obj
 0001:00014f80       ??$forward@PAVDisplayableObject@@@std@@YA$$QAPAVDisplayableObject@@AAPAV1@@Z 00415f80 f i BaseEngine.obj
 0001:00014fa0       ??$forward@U?$pair@HPAVDisplayableObject@@@std@@@std@@YA$$QAU?$pair@HPAVDisplayableObject@@@0@AAU10@@Z 00415fa0 f i BaseEngine.obj
 0001:00014fc0       ??$forward@V?$_List_iterator@V?$_List_val@U?$_List_simple_types@U?$pair@$$CBHPAVDisplayableObject@@@std@@@std@@@std@@@std@@@std@@YA$$QAV?$_List_iterator@V?$_List_val@U?$_List_simple_types@U?$pair@$$CBHPAVDisplayableObject@@@std@@@std@@@std@@@0@AAV10@@Z 00415fc0 f i BaseEngine.obj
 0001:00014fe0       ??$forward@V?$_List_unchecked_iterator@V?$_List_val@U?$_List_simple_types@U?$pair@$$CBHPAVDisplayableObject@@@std@@@std@@@std@@@std@@@std@@YA$$QAV?$_List_unchecked_iterator@V?$_List_val@U?$_List_simple_types@U?$pair@$$CBHPAVDisplayableObject@@@std@@@std@@@std@@@0@AAV10@@Z 00415fe0 f i BaseEngine.obj
 0001:00015000       ??$forward@_N@std@@YA$$QA_NAA_N@Z 00416000 f i BaseEngine.obj
 0001:00015020       ??$insert@U?$pair@HPAVDisplayableObject@@@std@@@?$_Hash@V?$_Umap_traits@HPAVDisplayableObject@@V?$_Uhash_compare@HU?$hash@H@std@@U?$equal_to@H@2@@std@@V?$allocator@U?$pair@$$CBHPAVDisplayableObject@@@std@@@3@$0A@@std@@@std@@QAE?AU?$pair@V?$_List_iterator@V?$_List_val@U?$_List_simple_types@U?$pair@$$CBHPAVDisplayableObject@@@std@@@std@@@std@@@std@@_N@1@$$QAU?$pair@HPAVDisplayableObject@@@1@@Z 00416020 f i BaseEngine.obj
 0001:00015090       ??0?$_Hash@V?$_Umap_traits@HPAVDisplayableObject@@V?$_Uhash_compare@HU?$hash@H@std@@U?$equal_to@H@2@@std@@V?$allocator@U?$pair@$$CBHPAVDisplayableObject@@@std@@@3@$0A@@std@@@std@@QAE@ABV?$_Uhash_compare@HU?$hash@H@std@@U?$equal_to@H@2@@1@ABV?$allocator@U?$pair@$$CBHPAVDisplayableObject@@@std@@@1@@Z 00416090 f i BaseEngine.obj
 0001:00015160       ??0?$_Hash_oper1@$0A@U?$hash@H@std@@@std@@QAE@U?$hash@H@1@@Z 00416160 f i BaseEngine.obj
 0001:00015180       ??0?$_Hash_oper2@$0A@U?$hash@H@std@@U?$equal_to@H@2@@std@@QAE@U?$hash@H@1@U?$equal_to@H@1@@Z 00416180 f i BaseEngine.obj
 0001:000151b0       ??0?$_List_alloc@$0A@U?$_List_base_types@U?$pair@$$CBHPAVDisplayableObject@@@std@@V?$allocator@U?$pair@$$CBHPAVDisplayableObject@@@std@@@2@@std@@@std@@QAE@ABV?$allocator@U?$pair@$$CBHPAVDisplayableObject@@@std@@@1@@Z 004161b0 f i BaseEngine.obj
 0001:000151f0       ??0?$_List_buy@U?$pair@$$CBHPAVDisplayableObject@@@std@@V?$allocator@U?$pair@$$CBHPAVDisplayableObject@@@std@@@2@@std@@QAE@ABV?$allocator@U?$pair@$$CBHPAVDisplayableObject@@@std@@@1@@Z 004161f0 f i BaseEngine.obj
 0001:00015220       ??0?$_List_const_iterator@V?$_List_val@U?$_List_simple_types@U?$pair@$$CBHPAVDisplayableObject@@@std@@@std@@@std@@@std@@QAE@PAU?$_List_node@U?$pair@$$CBHPAVDisplayableObject@@@std@@PAX@1@PBV?$_List_val@U?$_List_simple_types@U?$pair@$$CBHPAVDisplayableObject@@@std@@@std@@@1@@Z 00416220 f i BaseEngine.obj
 0001:00015260       ??0?$_List_const_iterator@V?$_List_val@U?$_List_simple_types@U?$pair@$$CBHPAVDisplayableObject@@@std@@@std@@@std@@@std@@QAE@XZ 00416260 f i BaseEngine.obj
 0001:00015290       ??0?$_List_iterator@V?$_List_val@U?$_List_simple_types@U?$pair@$$CBHPAVDisplayableObject@@@std@@@std@@@std@@@std@@QAE@PAU?$_List_node@U?$pair@$$CBHPAVDisplayableObject@@@std@@PAX@1@PBV?$_List_val@U?$_List_simple_types@U?$pair@$$CBHPAVDisplayableObject@@@std@@@std@@@1@@Z 00416290 f i BaseEngine.obj
 0001:000152d0       ??0?$_List_iterator@V?$_List_val@U?$_List_simple_types@U?$pair@$$CBHPAVDisplayableObject@@@std@@@std@@@std@@@std@@QAE@XZ 004162d0 f i BaseEngine.obj
 0001:00015300       ??0?$_List_unchecked_const_iterator@V?$_List_val@U?$_List_simple_types@U?$pair@$$CBHPAVDisplayableObject@@@std@@@std@@@std@@U_Iterator_base0@2@@std@@QAE@PAU?$_List_node@U?$pair@$$CBHPAVDisplayableObject@@@std@@PAX@1@PBV?$_List_val@U?$_List_simple_types@U?$pair@$$CBHPAVDisplayableObject@@@std@@@std@@@1@@Z 00416300 f i BaseEngine.obj
 0001:00015340       ??0?$_List_unchecked_const_iterator@V?$_List_val@U?$_List_simple_types@U?$pair@$$CBHPAVDisplayableObject@@@std@@@std@@@std@@U_Iterator_base0@2@@std@@QAE@XZ 00416340 f i BaseEngine.obj
 0001:00015370       ??0?$_List_unchecked_iterator@V?$_List_val@U?$_List_simple_types@U?$pair@$$CBHPAVDisplayableObject@@@std@@@std@@@std@@@std@@QAE@PAU?$_List_node@U?$pair@$$CBHPAVDisplayableObject@@@std@@PAX@1@PBV?$_List_val@U?$_List_simple_types@U?$pair@$$CBHPAVDisplayableObject@@@std@@@std@@@1@@Z 00416370 f i BaseEngine.obj
 0001:000153b0       ??0?$_List_unchecked_iterator@V?$_List_val@U?$_List_simple_types@U?$pair@$$CBHPAVDisplayableObject@@@std@@@std@@@std@@@std@@QAE@XZ 004163b0 f i BaseEngine.obj
 0001:000153e0       ??0?$_List_val@U?$_List_simple_types@U?$pair@$$CBHPAVDisplayableObject@@@std@@@std@@@std@@QAE@XZ 004163e0 f i BaseEngine.obj
 0001:00015420       ??0?$_Uhash_compare@HU?$hash@H@std@@U?$equal_to@H@2@@std@@QAE@U?$hash@H@1@U?$equal_to@H@1@@Z 00416420 f i BaseEngine.obj
 0001:00015460       ??0?$_Umap_traits@HPAVDisplayableObject@@V?$_Uhash_compare@HU?$hash@H@std@@U?$equal_to@H@2@@std@@V?$allocator@U?$pair@$$CBHPAVDisplayableObject@@@std@@@3@$0A@@std@@QAE@ABV?$_Uhash_compare@HU?$hash@H@std@@U?$equal_to@H@2@@1@@Z 00416460 f i BaseEngine.obj
 0001:00015480       ??0?$_Vector_alloc@$0A@U?$_Vec_base_types@V?$_List_unchecked_iterator@V?$_List_val@U?$_List_simple_types@U?$pair@$$CBHPAVDisplayableObject@@@std@@@std@@@std@@@std@@U?$_Wrap_alloc@V?$allocator@V?$_List_unchecked_iterator@V?$_List_val@U?$_List_simple_types@U?$pair@$$CBHPAVDisplayableObject@@@std@@@std@@@std@@@std@@@std@@@2@@std@@@std@@QAE@ABU?$_Wrap_alloc@V?$allocator@V?$_List_unchecked_iterator@V?$_List_val@U?$_List_simple_types@U?$pair@$$CBHPAVDisplayableObject@@@std@@@std@@@std@@@std@@@std@@@1@@Z 00416480 f i BaseEngine.obj
 0001:000154b0       ??0?$_Vector_const_iterator@V?$_Vector_val@U?$_Simple_types@V?$_List_unchecked_iterator@V?$_List_val@U?$_List_simple_types@U?$pair@$$CBHPAVDisplayableObject@@@std@@@std@@@std@@@std@@@std@@@std@@@std@@QAE@PAV?$_List_unchecked_iterator@V?$_List_val@U?$_List_simple_types@U?$pair@$$CBHPAVDisplayableObject@@@std@@@std@@@std@@@1@PBU_Container_base0@1@@Z 004164b0 f i BaseEngine.obj
 0001:000154f0       ??0?$_Vector_iterator@V?$_Vector_val@U?$_Simple_types@V?$_List_unchecked_iterator@V?$_List_val@U?$_List_simple_types@U?$pair@$$CBHPAVDisplayableObject@@@std@@@std@@@std@@@std@@@std@@@std@@@std@@QAE@PAV?$_List_unchecked_iterator@V?$_List_val@U?$_List_simple_types@U?$pair@$$CBHPAVDisplayableObject@@@std@@@std@@@std@@@1@PBU_Container_base0@1@@Z 004164f0 f i BaseEngine.obj
 0001:00015530       ??0?$_Vector_val@U?$_Simple_types@V?$_List_unchecked_iterator@V?$_List_val@U?$_List_simple_types@U?$pair@$$CBHPAVDisplayableObject@@@std@@@std@@@std@@@std@@@std@@@std@@QAE@XZ 00416530 f i BaseEngine.obj
 0001:00015570       ??0?$_Wrap_alloc@U?$_Wrap_alloc@V?$allocator@V?$_List_unchecked_iterator@V?$_List_val@U?$_List_simple_types@U?$pair@$$CBHPAVDisplayableObject@@@std@@@std@@@std@@@std@@@std@@@std@@@std@@QAE@XZ 00416570 f i BaseEngine.obj
 0001:000155a0       ??0?$_Wrap_alloc@V?$allocator@U?$_List_node@U?$pair@$$CBHPAVDisplayableObject@@@std@@PAX@std@@@std@@@std@@QAE@XZ 004165a0 f i BaseEngine.obj
 0001:000155d0       ??0?$_Wrap_alloc@V?$allocator@V?$_List_unchecked_iterator@V?$_List_val@U?$_List_simple_types@U?$pair@$$CBHPAVDisplayableObject@@@std@@@std@@@std@@@std@@@std@@@std@@QAE@XZ 004165d0 f i BaseEngine.obj
 0001:00015600       ??0?$allocator@U?$_List_node@U?$pair@$$CBHPAVDisplayableObject@@@std@@PAX@std@@@std@@QAE@XZ 00416600 f i BaseEngine.obj
 0001:00015620       ??0?$allocator@U?$pair@$$CBHPAVDisplayableObject@@@std@@@std@@QAE@XZ 00416620 f i BaseEngine.obj
 0001:00015640       ??0?$allocator@V?$_List_unchecked_iterator@V?$_List_val@U?$_List_simple_types@U?$pair@$$CBHPAVDisplayableObject@@@std@@@std@@@std@@@std@@@std@@QAE@XZ 00416640 f i BaseEngine.obj
 0001:00015660       ??0?$list@U?$pair@$$CBHPAVDisplayableObject@@@std@@V?$allocator@U?$pair@$$CBHPAVDisplayableObject@@@std@@@2@@std@@QAE@ABV?$allocator@U?$pair@$$CBHPAVDisplayableObject@@@std@@@1@@Z 00416660 f i BaseEngine.obj
 0001:00015690       ??0?$unordered_map@HPAVDisplayableObject@@U?$hash@H@std@@U?$equal_to@H@3@V?$allocator@U?$pair@$$CBHPAVDisplayableObject@@@std@@@3@@std@@QAE@XZ 00416690 f i BaseEngine.obj
 0001:000156e0       ??0?$vector@V?$_List_unchecked_iterator@V?$_List_val@U?$_List_simple_types@U?$pair@$$CBHPAVDisplayableObject@@@std@@@std@@@std@@@std@@U?$_Wrap_alloc@V?$allocator@V?$_List_unchecked_iterator@V?$_List_val@U?$_List_simple_types@U?$pair@$$CBHPAVDisplayableObject@@@std@@@std@@@std@@@std@@@std@@@2@@std@@QAE@ABU?$_Wrap_alloc@V?$allocator@V?$_List_unchecked_iterator@V?$_List_val@U?$_List_simple_types@U?$pair@$$CBHPAVDisplayableObject@@@std@@@std@@@std@@@std@@@std@@@1@@Z 004166e0 f i BaseEngine.obj
 0001:00015710       ??0BaseEngine@@QAE@H@Z     00416710 f   BaseEngine.obj
 0001:00015870       ??1?$_Hash@V?$_Umap_traits@HPAVDisplayableObject@@V?$_Uhash_compare@HU?$hash@H@std@@U?$equal_to@H@2@@std@@V?$allocator@U?$pair@$$CBHPAVDisplayableObject@@@std@@@3@$0A@@std@@@std@@QAE@XZ 00416870 f i BaseEngine.obj
 0001:000158a0       ??1?$_List_alloc@$0A@U?$_List_base_types@U?$pair@$$CBHPAVDisplayableObject@@@std@@V?$allocator@U?$pair@$$CBHPAVDisplayableObject@@@std@@@2@@std@@@std@@QAE@XZ 004168a0 f i BaseEngine.obj
 0001:000158d0       ??1?$_List_buy@U?$pair@$$CBHPAVDisplayableObject@@@std@@V?$allocator@U?$pair@$$CBHPAVDisplayableObject@@@std@@@2@@std@@QAE@XZ 004168d0 f i BaseEngine.obj
 0001:00015900       ??1?$list@U?$pair@$$CBHPAVDisplayableObject@@@std@@V?$allocator@U?$pair@$$CBHPAVDisplayableObject@@@std@@@2@@std@@QAE@XZ 00416900 f i BaseEngine.obj
 0001:00015930       ??1?$unordered_map@HPAVDisplayableObject@@U?$hash@H@std@@U?$equal_to@H@3@V?$allocator@U?$pair@$$CBHPAVDisplayableObject@@@std@@@3@@std@@QAE@XZ 00416930 f i BaseEngine.obj
 0001:00015960       ??1?$vector@V?$_List_unchecked_iterator@V?$_List_val@U?$_List_simple_types@U?$pair@$$CBHPAVDisplayableObject@@@std@@@std@@@std@@@std@@U?$_Wrap_alloc@V?$allocator@V?$_List_unchecked_iterator@V?$_List_val@U?$_List_simple_types@U?$pair@$$CBHPAVDisplayableObject@@@std@@@std@@@std@@@std@@@std@@@2@@std@@QAE@XZ 00416960 f i BaseEngine.obj
 0001:00015990       ??1BaseEngine@@UAE@XZ      00416990 f   BaseEngine.obj
 0001:00015a30       ??8?$_List_const_iterator@V?$_List_val@U?$_List_simple_types@U?$pair@$$CBHPAVDisplayableObject@@@std@@@std@@@std@@@std@@QBE_NABV01@@Z 00416a30 f i BaseEngine.obj
 0001:00015a80       ??8?$_List_unchecked_const_iterator@V?$_List_val@U?$_List_simple_types@U?$pair@$$CBHPAVDisplayableObject@@@std@@@std@@@std@@U_Iterator_base0@2@@std@@QBE_NABV01@@Z 00416a80 f i BaseEngine.obj
 0001:00015ad0       ??9?$_List_const_iterator@V?$_List_val@U?$_List_simple_types@U?$pair@$$CBHPAVDisplayableObject@@@std@@@std@@@std@@@std@@QBE_NABV01@@Z 00416ad0 f i BaseEngine.obj
 0001:00015b20       ??9?$_List_unchecked_const_iterator@V?$_List_val@U?$_List_simple_types@U?$pair@$$CBHPAVDisplayableObject@@@std@@@std@@@std@@U_Iterator_base0@2@@std@@QBE_NABV01@@Z 00416b20 f i BaseEngine.obj
 0001:00015b70       ??A?$vector@V?$_List_unchecked_iterator@V?$_List_val@U?$_List_simple_types@U?$pair@$$CBHPAVDisplayableObject@@@std@@@std@@@std@@@std@@U?$_Wrap_alloc@V?$allocator@V?$_List_unchecked_iterator@V?$_List_val@U?$_List_simple_types@U?$pair@$$CBHPAVDisplayableObject@@@std@@@std@@@std@@@std@@@std@@@2@@std@@QAEAAV?$_List_unchecked_iterator@V?$_List_val@U?$_List_simple_types@U?$pair@$$CBHPAVDisplayableObject@@@std@@@std@@@std@@@1@I@Z 00416b70 f i BaseEngine.obj
 0001:00015ba0       ??C?$_List_iterator@V?$_List_val@U?$_List_simple_types@U?$pair@$$CBHPAVDisplayableObject@@@std@@@std@@@std@@@std@@QBEPAU?$pair@$$CBHPAVDisplayableObject@@@1@XZ 00416ba0 f i BaseEngine.obj
 0001:00015bd0       ??D?$_List_const_iterator@V?$_List_val@U?$_List_simple_types@U?$pair@$$CBHPAVDisplayableObject@@@std@@@std@@@std@@@std@@QBEABU?$pair@$$CBHPAVDisplayableObject@@@1@XZ 00416bd0 f i BaseEngine.obj
 0001:00015c00       ??D?$_List_iterator@V?$_List_val@U?$_List_simple_types@U?$pair@$$CBHPAVDisplayableObject@@@std@@@std@@@std@@@std@@QBEAAU?$pair@$$CBHPAVDisplayableObject@@@1@XZ 00416c00 f i BaseEngine.obj
 0001:00015c30       ??D?$_List_unchecked_const_iterator@V?$_List_val@U?$_List_simple_types@U?$pair@$$CBHPAVDisplayableObject@@@std@@@std@@@std@@U_Iterator_base0@2@@std@@QBEABU?$pair@$$CBHPAVDisplayableObject@@@1@XZ 00416c30 f i BaseEngine.obj
 0001:00015c60       ??D?$_List_unchecked_iterator@V?$_List_val@U?$_List_simple_types@U?$pair@$$CBHPAVDisplayableObject@@@std@@@std@@@std@@@std@@QBEAAU?$pair@$$CBHPAVDisplayableObject@@@1@XZ 00416c60 f i BaseEngine.obj
 0001:00015c90       ??E?$_List_const_iterator@V?$_List_val@U?$_List_simple_types@U?$pair@$$CBHPAVDisplayableObject@@@std@@@std@@@std@@@std@@QAE?AV01@H@Z 00416c90 f i BaseEngine.obj
 0001:00015cd0       ??E?$_List_const_iterator@V?$_List_val@U?$_List_simple_types@U?$pair@$$CBHPAVDisplayableObject@@@std@@@std@@@std@@@std@@QAEAAV01@XZ 00416cd0 f i BaseEngine.obj
 0001:00015d10       ??E?$_List_iterator@V?$_List_val@U?$_List_simple_types@U?$pair@$$CBHPAVDisplayableObject@@@std@@@std@@@std@@@std@@QAEAAV01@XZ 00416d10 f i BaseEngine.obj
 0001:00015d40       ??E?$_List_unchecked_const_iterator@V?$_List_val@U?$_List_simple_types@U?$pair@$$CBHPAVDisplayableObject@@@std@@@std@@@std@@U_Iterator_base0@2@@std@@QAEAAV01@XZ 00416d40 f i BaseEngine.obj
 0001:00015d80       ??E?$_List_unchecked_iterator@V?$_List_val@U?$_List_simple_types@U?$pair@$$CBHPAVDisplayableObject@@@std@@@std@@@std@@@std@@QAEAAV01@XZ 00416d80 f i BaseEngine.obj
 0001:00015db0       ??F?$_List_unchecked_const_iterator@V?$_List_val@U?$_List_simple_types@U?$pair@$$CBHPAVDisplayableObject@@@std@@@std@@@std@@U_Iterator_base0@2@@std@@QAEAAV01@XZ 00416db0 f i BaseEngine.obj
 0001:00015df0       ??F?$_List_unchecked_iterator@V?$_List_val@U?$_List_simple_types@U?$pair@$$CBHPAVDisplayableObject@@@std@@@std@@@std@@@std@@QAEAAV01@XZ 00416df0 f i BaseEngine.obj
 0001:00015e20       ??H?$_Vector_iterator@V?$_Vector_val@U?$_Simple_types@V?$_List_unchecked_iterator@V?$_List_val@U?$_List_simple_types@U?$pair@$$CBHPAVDisplayableObject@@@std@@@std@@@std@@@std@@@std@@@std@@@std@@QBE?AV01@H@Z 00416e20 f i BaseEngine.obj
 0001:00015e60       ??R?$_Bitwise_hash@H@std@@QBEIABH@Z 00416e60 f i BaseEngine.obj
 0001:00015e90       ??R?$_Uhash_compare@HU?$hash@H@std@@U?$equal_to@H@2@@std@@QBEIABH@Z 00416e90 f i BaseEngine.obj
 0001:00015ed0       ??R?$_Uhash_compare@HU?$hash@H@std@@U?$equal_to@H@2@@std@@QBE_NABH0@Z 00416ed0 f i BaseEngine.obj
 0001:00015f30       ??R?$equal_to@H@std@@QBE_NABH0@Z 00416f30 f i BaseEngine.obj
 0001:00015f80       ??Y?$_Vector_const_iterator@V?$_Vector_val@U?$_Simple_types@V?$_List_unchecked_iterator@V?$_List_val@U?$_List_simple_types@U?$pair@$$CBHPAVDisplayableObject@@@std@@@std@@@std@@@std@@@std@@@std@@@std@@QAEAAV01@H@Z 00416f80 f i BaseEngine.obj
 0001:00015fc0       ??Y?$_Vector_iterator@V?$_Vector_val@U?$_Simple_types@V?$_List_unchecked_iterator@V?$_List_val@U?$_List_simple_types@U?$pair@$$CBHPAVDisplayableObject@@@std@@@std@@@std@@@std@@@std@@@std@@@std@@QAEAAV01@H@Z 00416fc0 f i BaseEngine.obj
 0001:00015ff0       ??_EBaseEngine@@UAEPAXI@Z  00416ff0 f i BaseEngine.obj
 0001:00015ff0       ??_GBaseEngine@@UAEPAXI@Z  00416ff0 f i BaseEngine.obj
 0001:00016040       ?CleanUp@BaseEngine@@UAEXXZ 00417040 f   BaseEngine.obj
 0001:00016060       ?CopyAllBackgroundBuffer@BaseEngine@@QAEXXZ 00417060 f   BaseEngine.obj
 0001:000160c0       ?CopyBackgroundPixels@BaseEngine@@QAEXHHHH@Z 004170c0 f   BaseEngine.obj
 0001:000161d0       ?CreateObjectArray@BaseEngine@@QAEXH@Z 004171d0 f   BaseEngine.obj
 0001:00016200       ?Deinitialise@BaseEngine@@QAEXXZ 00417200 f   BaseEngine.obj
 0001:00016250       ?DestroyOldObjects@BaseEngine@@UAEXXZ 00417250 f   BaseEngine.obj
 0001:000162a0       ?DrawHollowOval@BaseEngine@@QAEXHHHHHHHHIPAUSDL_Surface@@@Z 004172a0 f   BaseEngine.obj
 0001:000165a0       ?DrawLine@BaseEngine@@QAEXNNNNIPAUSDL_Surface@@@Z 004175a0 f   BaseEngine.obj
 0001:00016750       ?DrawObjects@BaseEngine@@UAEXXZ 00417750 f   BaseEngine.obj
 0001:00016830       ?DrawOval@BaseEngine@@QAEXHHHHIPAUSDL_Surface@@@Z 00417830 f   BaseEngine.obj
 0001:00016a00       ?DrawPolygon@BaseEngine@@QAEXHPAN0IPAUSDL_Surface@@@Z 00417a00 f   BaseEngine.obj
 0001:00017400       ?DrawRectangle@BaseEngine@@QAEXHHHHIPAUSDL_Surface@@@Z 00418400 f   BaseEngine.obj
 0001:000174d0       ?DrawShortenedArrow@BaseEngine@@QAEXHHHHHHIHHPAUSDL_Surface@@@Z 004184d0 f   BaseEngine.obj
 0001:00017b40       ?DrawShortenedLine@BaseEngine@@QAEXHHHHHHIHPAUSDL_Surface@@@Z 00418b40 f   BaseEngine.obj
 0001:00018050       ?DrawString@BaseEngine@@QAEXHHPBDIPAVFont@@PAUSDL_Surface@@@Z 00419050 f   BaseEngine.obj
 0001:000181d0       ?DrawStrings@BaseEngine@@UAEXXZ 004191d0 f   BaseEngine.obj
 0001:000181f0       ?DrawStringsOnTop@BaseEngine@@UAEXXZ 004191f0 f   BaseEngine.obj
 0001:00018210       ?DrawStringsUnderneath@BaseEngine@@UAEXXZ 00419210 f   BaseEngine.obj
 0001:00018230       ?DrawThickLine@BaseEngine@@QAEXNNNNIHPAUSDL_Surface@@@Z 00419230 f   BaseEngine.obj
 0001:00018760       ?DrawTriangle@BaseEngine@@QAEXNNNNNNIPAUSDL_Surface@@@Z 00419760 f   BaseEngine.obj
 0001:00018a80       ?DrawVerticalSidedRegion@BaseEngine@@QAEXNNNNNNIPAUSDL_Surface@@@Z 00419a80 f   BaseEngine.obj
 0001:00018e10       ?FillBackground@BaseEngine@@UAEXI@Z 00419e10 f   BaseEngine.obj
 0001:00018e90       ?GameAction@BaseEngine@@UAEXXZ 00419e90 f   BaseEngine.obj
 0001:00018ef0       ?GameInit@BaseEngine@@UAEHXZ 00419ef0 f   BaseEngine.obj
 0001:00018f30       ?GameRender@BaseEngine@@UAEXXZ 00419f30 f   BaseEngine.obj
 0001:000191c0       ?GetColour@BaseEngine@@QBEIH@Z 0041a1c0 f   BaseEngine.obj
 0001:00019490       ?GetDisplayableObject@BaseEngine@@QAEPAVDisplayableObject@@H@Z 0041a490 f   BaseEngine.obj
 0001:000194e0       ?GetFont@Font@@QAEPAU_TTF_Font@@XZ 0041a4e0 f i BaseEngine.obj
 0001:00019500       ?Initialise@BaseEngine@@QAEHPBDHH0H@Z 0041a500 f   BaseEngine.obj
 0001:00019750       ?InitialiseObjects@BaseEngine@@UAEHXZ 0041a750 f   BaseEngine.obj
 0001:00019780       ?IsKeyPressed@BaseEngine@@QBE_NH@Z 0041a780 f   BaseEngine.obj
 0001:000197c0       ?IsTimeToActWithSleep@BaseEngine@@QBE_NXZ 0041a7c0 f i BaseEngine.obj
 0001:00019840       ?KeyDown@BaseEngine@@UAEXH@Z 0041a840 f   BaseEngine.obj
 0001:00019860       ?KeyUp@BaseEngine@@UAEXH@Z 0041a860 f   BaseEngine.obj
 0001:00019880       ?MainLoop@BaseEngine@@QAEHXZ 0041a880 f   BaseEngine.obj
 0001:00019ad0       ?MouseDown@BaseEngine@@UAEXHHH@Z 0041aad0 f   BaseEngine.obj
 0001:00019af0       ?MouseMoved@BaseEngine@@UAEXHH@Z 0041aaf0 f   BaseEngine.obj
 0001:00019b10       ?MouseUp@BaseEngine@@UAEXHHH@Z 0041ab10 f   BaseEngine.obj
 0001:00019b30       ?NotifyAllObjects@BaseEngine@@QAEXH@Z 0041ab30 f   BaseEngine.obj
 0001:00019c00       ?NotifyAllObjectsGetCountNonZero@BaseEngine@@QAEHH@Z 0041ac00 f   BaseEngine.obj
 0001:00019ce0       ?NotifyAllObjectsGetMax@BaseEngine@@QAEHH@Z 0041ace0 f   BaseEngine.obj
 0001:00019dd0       ?NotifyAllObjectsGetMin@BaseEngine@@QAEHH@Z 0041add0 f   BaseEngine.obj
 0001:00019ec0       ?NotifyAllObjectsGetSum@BaseEngine@@QAEHH@Z 0041aec0 f   BaseEngine.obj
 0001:00019fa0       ?SafeSetPixel@BaseEngine@@QAEXHHIPAUSDL_Surface@@@Z 0041afa0 f i BaseEngine.obj
 0001:0001a030       ?SetupBackgroundBuffer@BaseEngine@@UAEXXZ 0041b030 f   BaseEngine.obj
 0001:0001a060       ?StoreObjectInArray@BaseEngine@@QAEXHPAVDisplayableObject@@@Z 0041b060 f   BaseEngine.obj
 0001:0001a0b0       ?SymbolToKeycode@BaseEngine@@SAHH@Z 0041b0b0 f i BaseEngine.obj
 0001:0001a430       ?UnDrawStrings@BaseEngine@@UAEXXZ 0041b430 f   BaseEngine.obj
 0001:0001a450       ?UndrawObjects@BaseEngine@@UAEXXZ 0041b450 f   BaseEngine.obj
 0001:0001a530       ?UpdateAllObjects@BaseEngine@@UAEXH@Z 0041b530 f   BaseEngine.obj
 0001:0001a610       ?_Begin@?$_Hash@V?$_Umap_traits@HPAVDisplayableObject@@V?$_Uhash_compare@HU?$hash@H@std@@U?$equal_to@H@2@@std@@V?$allocator@U?$pair@$$CBHPAVDisplayableObject@@@std@@@3@$0A@@std@@@std@@IAE?AV?$_List_unchecked_iterator@V?$_List_val@U?$_List_simple_types@U?$pair@$$CBHPAVDisplayableObject@@@std@@@std@@@std@@@2@I@Z 0041b610 f i BaseEngine.obj
 0001:0001a650       ?_Buyheadnode@?$_List_alloc@$0A@U?$_List_base_types@U?$pair@$$CBHPAVDisplayableObject@@@std@@V?$allocator@U?$pair@$$CBHPAVDisplayableObject@@@std@@@2@@std@@@std@@QAEPAU?$_List_node@U?$pair@$$CBHPAVDisplayableObject@@@std@@PAX@2@XZ 0041b650 f i BaseEngine.obj
 0001:0001a680       ?_Buynode0@?$_List_alloc@$0A@U?$_List_base_types@U?$pair@$$CBHPAVDisplayableObject@@@std@@V?$allocator@U?$pair@$$CBHPAVDisplayableObject@@@std@@@2@@std@@@std@@QAEPAU?$_List_node@U?$pair@$$CBHPAVDisplayableObject@@@std@@PAX@2@PAU32@0@Z 0041b680 f i BaseEngine.obj
 0001:0001a7f0       ?_Check_size@?$_Hash@V?$_Umap_traits@HPAVDisplayableObject@@V?$_Uhash_compare@HU?$hash@H@std@@U?$equal_to@H@2@@std@@V?$allocator@U?$pair@$$CBHPAVDisplayableObject@@@std@@@3@$0A@@std@@@std@@IAEXXZ 0041b7f0 f i BaseEngine.obj
 0001:0001a8b0       ?_Destroy@?$vector@V?$_List_unchecked_iterator@V?$_List_val@U?$_List_simple_types@U?$pair@$$CBHPAVDisplayableObject@@@std@@@std@@@std@@@std@@U?$_Wrap_alloc@V?$allocator@V?$_List_unchecked_iterator@V?$_List_val@U?$_List_simple_types@U?$pair@$$CBHPAVDisplayableObject@@@std@@@std@@@std@@@std@@@std@@@2@@std@@IAEXPAV?$_List_unchecked_iterator@V?$_List_val@U?$_List_simple_types@U?$pair@$$CBHPAVDisplayableObject@@@std@@@std@@@std@@@2@0@Z 0041b8b0 f i BaseEngine.obj
 0001:0001a900       ?_Destroy_if_not_nil@?$_Hash@V?$_Umap_traits@HPAVDisplayableObject@@V?$_Uhash_compare@HU?$hash@H@std@@U?$equal_to@H@2@@std@@V?$allocator@U?$pair@$$CBHPAVDisplayableObject@@@std@@@3@$0A@@std@@@std@@IAEXV?$_List_unchecked_iterator@V?$_List_val@U?$_List_simple_types@U?$pair@$$CBHPAVDisplayableObject@@@std@@@std@@@std@@@2@@Z 0041b900 f i BaseEngine.obj
 0001:0001a950       ?_End@?$_Hash@V?$_Umap_traits@HPAVDisplayableObject@@V?$_Uhash_compare@HU?$hash@H@std@@U?$equal_to@H@2@@std@@V?$allocator@U?$pair@$$CBHPAVDisplayableObject@@@std@@@3@$0A@@std@@@std@@IAE?AV?$_List_unchecked_iterator@V?$_List_val@U?$_List_simple_types@U?$pair@$$CBHPAVDisplayableObject@@@std@@@std@@@std@@@2@I@Z 0041b950 f i BaseEngine.obj
 0001:0001a9e0       ?_Freeheadnode@?$_List_alloc@$0A@U?$_List_base_types@U?$pair@$$CBHPAVDisplayableObject@@@std@@V?$allocator@U?$pair@$$CBHPAVDisplayableObject@@@std@@@2@@std@@@std@@QAEXPAU?$_List_node@U?$pair@$$CBHPAVDisplayableObject@@@std@@PAX@2@@Z 0041b9e0 f i BaseEngine.obj
 0001:0001aa80       ?_Freenode@?$_List_buy@U?$pair@$$CBHPAVDisplayableObject@@@std@@V?$allocator@U?$pair@$$CBHPAVDisplayableObject@@@std@@@2@@std@@QAEXPAU?$_List_node@U?$pair@$$CBHPAVDisplayableObject@@@std@@PAX@2@@Z 0041ba80 f i BaseEngine.obj
 0001:0001ab60       ?_Getal@?$_List_alloc@$0A@U?$_List_base_types@U?$pair@$$CBHPAVDisplayableObject@@@std@@V?$allocator@U?$pair@$$CBHPAVDisplayableObject@@@std@@@2@@std@@@std@@QBE?AU?$_Wrap_alloc@V?$allocator@U?$_List_node@U?$pair@$$CBHPAVDisplayableObject@@@std@@PAX@std@@@std@@@2@XZ 0041bb60 f i BaseEngine.obj
 0001:0001ab90       ?_Getal@?$_Vector_alloc@$0A@U?$_Vec_base_types@V?$_List_unchecked_iterator@V?$_List_val@U?$_List_simple_types@U?$pair@$$CBHPAVDisplayableObject@@@std@@@std@@@std@@@std@@U?$_Wrap_alloc@V?$allocator@V?$_List_unchecked_iterator@V?$_List_val@U?$_List_simple_types@U?$pair@$$CBHPAVDisplayableObject@@@std@@@std@@@std@@@std@@@std@@@2@@std@@@std@@QBE?AU?$_Wrap_alloc@U?$_Wrap_alloc@V?$allocator@V?$_List_unchecked_iterator@V?$_List_val@U?$_List_simple_types@U?$pair@$$CBHPAVDisplayableObject@@@std@@@std@@@std@@@std@@@std@@@std@@@2@XZ 0041bb90 f i BaseEngine.obj
 0001:0001abc0       ?_Gethash@?$_Hash_oper1@$0A@U?$hash@H@std@@@std@@QBE?AU?$hash@H@2@XZ 0041bbc0 f i BaseEngine.obj
 0001:0001abe0       ?_Getkeyeq@?$_Hash_oper2@$0A@U?$hash@H@std@@U?$equal_to@H@2@@std@@QBE?AU?$equal_to@H@2@XZ 0041bbe0 f i BaseEngine.obj
 0001:0001ac00       ?_Grow_to@?$vector@V?$_List_unchecked_iterator@V?$_List_val@U?$_List_simple_types@U?$pair@$$CBHPAVDisplayableObject@@@std@@@std@@@std@@@std@@U?$_Wrap_alloc@V?$allocator@V?$_List_unchecked_iterator@V?$_List_val@U?$_List_simple_types@U?$pair@$$CBHPAVDisplayableObject@@@std@@@std@@@std@@@std@@@std@@@2@@std@@IBEII@Z 0041bc00 f i BaseEngine.obj
 0001:0001ac80       ?_Hash_seq@std@@YAIPBEI@Z  0041bc80 f i BaseEngine.obj
 0001:0001ad00       ?_Hashval@?$_Hash@V?$_Umap_traits@HPAVDisplayableObject@@V?$_Uhash_compare@HU?$hash@H@std@@U?$equal_to@H@2@@std@@V?$allocator@U?$pair@$$CBHPAVDisplayableObject@@@std@@@3@$0A@@std@@@std@@IBEIABH@Z 0041bd00 f i BaseEngine.obj
 0001:0001ad60       ?_Incsize@?$list@U?$pair@$$CBHPAVDisplayableObject@@@std@@V?$allocator@U?$pair@$$CBHPAVDisplayableObject@@@std@@@2@@std@@QAEXI@Z 0041bd60 f i BaseEngine.obj
 0001:0001adc0       ?_Init@?$_Hash@V?$_Umap_traits@HPAVDisplayableObject@@V?$_Uhash_compare@HU?$hash@H@std@@U?$equal_to@H@2@@std@@V?$allocator@U?$pair@$$CBHPAVDisplayableObject@@@std@@@3@$0A@@std@@@std@@IAEXI@Z 0041bdc0 f i BaseEngine.obj
 0001:0001ae20       ?_Insert_bucket@?$_Hash@V?$_Umap_traits@HPAVDisplayableObject@@V?$_Uhash_compare@HU?$hash@H@std@@U?$equal_to@H@2@@std@@V?$allocator@U?$pair@$$CBHPAVDisplayableObject@@@std@@@3@$0A@@std@@@std@@IAEXV?$_List_unchecked_iterator@V?$_List_val@U?$_List_simple_types@U?$pair@$$CBHPAVDisplayableObject@@@std@@@std@@@std@@@2@0I@Z 0041be20 f i BaseEngine.obj
 0001:0001af20       ?_Insert_n@?$vector@V?$_List_unchecked_iterator@V?$_List_val@U?$_List_simple_types@U?$pair@$$CBHPAVDisplayableObject@@@std@@@std@@@std@@@std@@U?$_Wrap_alloc@V?$allocator@V?$_List_unchecked_iterator@V?$_List_val@U?$_List_simple_types@U?$pair@$$CBHPAVDisplayableObject@@@std@@@std@@@std@@@std@@@std@@@2@@std@@IAE?AV?$_Vector_iterator@V?$_Vector_val@U?$_Simple_types@V?$_List_unchecked_iterator@V?$_List_val@U?$_List_simple_types@U?$pair@$$CBHPAVDisplayableObject@@@std@@@std@@@std@@@std@@@std@@@std@@@2@V?$_Vector_const_iterator@V?$_Vector_val@U?$_Simple_types@V?$_List_unchecked_iterator@V?$_List_val@U?$_List_simple_types@U?$pair@$$CBHPAVDisplayableObject@@@std@@@std@@@std@@@std@@@std@@@std@@@2@IABV?$_List_unchecked_iterator@V?$_List_val@U?$_List_simple_types@U?$pair@$$CBHPAVDisplayableObject@@@std@@@std@@@std@@@2@@Z 0041bf20 f i BaseEngine.obj
 0001:0001b400       ?_Make_iter@?$_Hash@V?$_Umap_traits@HPAVDisplayableObject@@V?$_Uhash_compare@HU?$hash@H@std@@U?$equal_to@H@2@@std@@V?$allocator@U?$pair@$$CBHPAVDisplayableObject@@@std@@@3@$0A@@std@@@std@@QBE?AV?$_List_iterator@V?$_List_val@U?$_List_simple_types@U?$pair@$$CBHPAVDisplayableObject@@@std@@@std@@@std@@@2@V?$_List_unchecked_const_iterator@V?$_List_val@U?$_List_simple_types@U?$pair@$$CBHPAVDisplayableObject@@@std@@@std@@@std@@U_Iterator_base0@2@@2@@Z 0041c400 f i BaseEngine.obj
 0001:0001b440       ?_Make_iter@?$list@U?$pair@$$CBHPAVDisplayableObject@@@std@@V?$allocator@U?$pair@$$CBHPAVDisplayableObject@@@std@@@2@@std@@QBE?AV?$_List_iterator@V?$_List_val@U?$_List_simple_types@U?$pair@$$CBHPAVDisplayableObject@@@std@@@std@@@std@@@2@V?$_List_const_iterator@V?$_List_val@U?$_List_simple_types@U?$pair@$$CBHPAVDisplayableObject@@@std@@@std@@@std@@@2@@Z 0041c440 f i BaseEngine.obj
 0001:0001b480       ?_Make_iter@?$list@U?$pair@$$CBHPAVDisplayableObject@@@std@@V?$allocator@U?$pair@$$CBHPAVDisplayableObject@@@std@@@2@@std@@QBE?AV?$_List_iterator@V?$_List_val@U?$_List_simple_types@U?$pair@$$CBHPAVDisplayableObject@@@std@@@std@@@std@@@2@V?$_List_unchecked_const_iterator@V?$_List_val@U?$_List_simple_types@U?$pair@$$CBHPAVDisplayableObject@@@std@@@std@@@std@@U_Iterator_base0@2@@2@@Z 0041c480 f i BaseEngine.obj
 0001:0001b4c0       ?_Mynode@?$_List_unchecked_const_iterator@V?$_List_val@U?$_List_simple_types@U?$pair@$$CBHPAVDisplayableObject@@@std@@@std@@@std@@U_Iterator_base0@2@@std@@QBEPAU?$_List_node@U?$pair@$$CBHPAVDisplayableObject@@@std@@PAX@2@XZ 0041c4c0 f i BaseEngine.obj
 0001:0001b4e0       ?_Myval@?$_List_val@U?$_List_simple_types@U?$pair@$$CBHPAVDisplayableObject@@@std@@@std@@@std@@SAAAU?$pair@$$CBHPAVDisplayableObject@@@2@PAU?$_List_node@U?$pair@$$CBHPAVDisplayableObject@@@std@@PAX@2@@Z 0041c4e0 f i BaseEngine.obj
 0001:0001b500       ?_Nextnode@?$_List_val@U?$_List_simple_types@U?$pair@$$CBHPAVDisplayableObject@@@std@@@std@@@std@@SAAAPAU?$_List_node@U?$pair@$$CBHPAVDisplayableObject@@@std@@PAX@2@PAU32@@Z 0041c500 f i BaseEngine.obj
 0001:0001b520       ?_Orphan_range@?$vector@V?$_List_unchecked_iterator@V?$_List_val@U?$_List_simple_types@U?$pair@$$CBHPAVDisplayableObject@@@std@@@std@@@std@@@std@@U?$_Wrap_alloc@V?$allocator@V?$_List_unchecked_iterator@V?$_List_val@U?$_List_simple_types@U?$pair@$$CBHPAVDisplayableObject@@@std@@@std@@@std@@@std@@@std@@@2@@std@@IBEXPAV?$_List_unchecked_iterator@V?$_List_val@U?$_List_simple_types@U?$pair@$$CBHPAVDisplayableObject@@@std@@@std@@@std@@@2@0@Z 0041c520 f i BaseEngine.obj
 0001:0001b540       ?_Prevnode@?$_List_val@U?$_List_simple_types@U?$pair@$$CBHPAVDisplayableObject@@@std@@@std@@@std@@SAAAPAU?$_List_node@U?$pair@$$CBHPAVDisplayableObject@@@std@@PAX@2@PAU32@@Z 0041c540 f i BaseEngine.obj
 0001:0001b560       ?_Reinsert@?$_Hash@V?$_Umap_traits@HPAVDisplayableObject@@V?$_Uhash_compare@HU?$hash@H@std@@U?$equal_to@H@2@@std@@V?$allocator@U?$pair@$$CBHPAVDisplayableObject@@@std@@@3@$0A@@std@@@std@@IAEXXZ 0041c560 f i BaseEngine.obj
 0001:0001b610       ?_Tidy@?$list@U?$pair@$$CBHPAVDisplayableObject@@@std@@V?$allocator@U?$pair@$$CBHPAVDisplayableObject@@@std@@@2@@std@@QAEXXZ 0041c610 f i BaseEngine.obj
 0001:0001b640       ?_Tidy@?$vector@V?$_List_unchecked_iterator@V?$_List_val@U?$_List_simple_types@U?$pair@$$CBHPAVDisplayableObject@@@std@@@std@@@std@@@std@@U?$_Wrap_alloc@V?$allocator@V?$_List_unchecked_iterator@V?$_List_val@U?$_List_simple_types@U?$pair@$$CBHPAVDisplayableObject@@@std@@@std@@@std@@@std@@@std@@@2@@std@@IAEXXZ 0041c640 f i BaseEngine.obj
 0001:0001b6e0       ?_Ufill@?$vector@V?$_List_unchecked_iterator@V?$_List_val@U?$_List_simple_types@U?$pair@$$CBHPAVDisplayableObject@@@std@@@std@@@std@@@std@@U?$_Wrap_alloc@V?$allocator@V?$_List_unchecked_iterator@V?$_List_val@U?$_List_simple_types@U?$pair@$$CBHPAVDisplayableObject@@@std@@@std@@@std@@@std@@@std@@@2@@std@@IAEPAV?$_List_unchecked_iterator@V?$_List_val@U?$_List_simple_types@U?$pair@$$CBHPAVDisplayableObject@@@std@@@std@@@std@@@2@PAV32@IPBV32@@Z 0041c6e0 f i BaseEngine.obj
 0001:0001b740       ?_Unchecked_begin@?$_Hash@V?$_Umap_traits@HPAVDisplayableObject@@V?$_Uhash_compare@HU?$hash@H@std@@U?$equal_to@H@2@@std@@V?$allocator@U?$pair@$$CBHPAVDisplayableObject@@@std@@@3@$0A@@std@@@std@@QAE?AV?$_List_unchecked_iterator@V?$_List_val@U?$_List_simple_types@U?$pair@$$CBHPAVDisplayableObject@@@std@@@std@@@std@@@2@XZ 0041c740 f i BaseEngine.obj
 0001:0001b770       ?_Unchecked_begin@?$list@U?$pair@$$CBHPAVDisplayableObject@@@std@@V?$allocator@U?$pair@$$CBHPAVDisplayableObject@@@std@@@2@@std@@QAE?AV?$_List_unchecked_iterator@V?$_List_val@U?$_List_simple_types@U?$pair@$$CBHPAVDisplayableObject@@@std@@@std@@@std@@@2@XZ 0041c770 f i BaseEngine.obj
 0001:0001b7c0       ?_Unchecked_end@?$_Hash@V?$_Umap_traits@HPAVDisplayableObject@@V?$_Uhash_compare@HU?$hash@H@std@@U?$equal_to@H@2@@std@@V?$allocator@U?$pair@$$CBHPAVDisplayableObject@@@std@@@3@$0A@@std@@@std@@QAE?AV?$_List_unchecked_iterator@V?$_List_val@U?$_List_simple_types@U?$pair@$$CBHPAVDisplayableObject@@@std@@@std@@@std@@@2@XZ 0041c7c0 f i BaseEngine.obj
 0001:0001b7f0       ?_Unchecked_end@?$list@U?$pair@$$CBHPAVDisplayableObject@@@std@@V?$allocator@U?$pair@$$CBHPAVDisplayableObject@@@std@@@2@@std@@QAE?AV?$_List_unchecked_iterator@V?$_List_val@U?$_List_simple_types@U?$pair@$$CBHPAVDisplayableObject@@@std@@@std@@@std@@@2@XZ 0041c7f0 f i BaseEngine.obj
 0001:0001b830       ?_Unchecked_splice@?$list@U?$pair@$$CBHPAVDisplayableObject@@@std@@V?$allocator@U?$pair@$$CBHPAVDisplayableObject@@@std@@@2@@std@@QAEXV?$_List_unchecked_const_iterator@V?$_List_val@U?$_List_simple_types@U?$pair@$$CBHPAVDisplayableObject@@@std@@@std@@@std@@U_Iterator_base0@2@@2@00@Z 0041c830 f i BaseEngine.obj
 0001:0001b980       ?_Unlinknode@?$list@U?$pair@$$CBHPAVDisplayableObject@@@std@@V?$allocator@U?$pair@$$CBHPAVDisplayableObject@@@std@@@2@@std@@QAEPAU?$_List_node@U?$pair@$$CBHPAVDisplayableObject@@@std@@PAX@2@V?$_List_const_iterator@V?$_List_val@U?$_List_simple_types@U?$pair@$$CBHPAVDisplayableObject@@@std@@@std@@@std@@@2@@Z 0041c980 f i BaseEngine.obj
 0001:0001ba30       ?_Unused_capacity@?$vector@V?$_List_unchecked_iterator@V?$_List_val@U?$_List_simple_types@U?$pair@$$CBHPAVDisplayableObject@@@std@@@std@@@std@@@std@@U?$_Wrap_alloc@V?$allocator@V?$_List_unchecked_iterator@V?$_List_val@U?$_List_simple_types@U?$pair@$$CBHPAVDisplayableObject@@@std@@@std@@@std@@@std@@@std@@@2@@std@@QBEIXZ 0041ca30 f i BaseEngine.obj
 0001:0001ba60       ?_Vec_hi@?$_Hash@V?$_Umap_traits@HPAVDisplayableObject@@V?$_Uhash_compare@HU?$hash@H@std@@U?$equal_to@H@2@@std@@V?$allocator@U?$pair@$$CBHPAVDisplayableObject@@@std@@@3@$0A@@std@@@std@@IAEAAV?$_List_unchecked_iterator@V?$_List_val@U?$_List_simple_types@U?$pair@$$CBHPAVDisplayableObject@@@std@@@std@@@std@@@2@I@Z 0041ca60 f i BaseEngine.obj
 0001:0001baa0       ?_Vec_lo@?$_Hash@V?$_Umap_traits@HPAVDisplayableObject@@V?$_Uhash_compare@HU?$hash@H@std@@U?$equal_to@H@2@@std@@V?$allocator@U?$pair@$$CBHPAVDisplayableObject@@@std@@@3@$0A@@std@@@std@@IAEAAV?$_List_unchecked_iterator@V?$_List_val@U?$_List_simple_types@U?$pair@$$CBHPAVDisplayableObject@@@std@@@std@@@std@@@2@I@Z 0041caa0 f i BaseEngine.obj
 0001:0001bad0       ?_Xlen@?$vector@V?$_List_unchecked_iterator@V?$_List_val@U?$_List_simple_types@U?$pair@$$CBHPAVDisplayableObject@@@std@@@std@@@std@@@std@@U?$_Wrap_alloc@V?$allocator@V?$_List_unchecked_iterator@V?$_List_val@U?$_List_simple_types@U?$pair@$$CBHPAVDisplayableObject@@@std@@@std@@@std@@@std@@@std@@@2@@std@@IBEXXZ 0041cad0 f i BaseEngine.obj
 0001:0001bb00       ?allocate@?$_Wrap_alloc@U?$_Wrap_alloc@V?$allocator@V?$_List_unchecked_iterator@V?$_List_val@U?$_List_simple_types@U?$pair@$$CBHPAVDisplayableObject@@@std@@@std@@@std@@@std@@@std@@@std@@@std@@QAEPAV?$_List_unchecked_iterator@V?$_List_val@U?$_List_simple_types@U?$pair@$$CBHPAVDisplayableObject@@@std@@@std@@@std@@@2@I@Z 0041cb00 f i BaseEngine.obj
 0001:0001bb30       ?allocate@?$_Wrap_alloc@V?$allocator@U?$_List_node@U?$pair@$$CBHPAVDisplayableObject@@@std@@PAX@std@@@std@@@std@@QAEPAU?$_List_node@U?$pair@$$CBHPAVDisplayableObject@@@std@@PAX@2@I@Z 0041cb30 f i BaseEngine.obj
 0001:0001bb60       ?allocate@?$_Wrap_alloc@V?$allocator@V?$_List_unchecked_iterator@V?$_List_val@U?$_List_simple_types@U?$pair@$$CBHPAVDisplayableObject@@@std@@@std@@@std@@@std@@@std@@@std@@QAEPAV?$_List_unchecked_iterator@V?$_List_val@U?$_List_simple_types@U?$pair@$$CBHPAVDisplayableObject@@@std@@@std@@@std@@@2@I@Z 0041cb60 f i BaseEngine.obj
 0001:0001bb90       ?allocate@?$allocator@U?$_List_node@U?$pair@$$CBHPAVDisplayableObject@@@std@@PAX@std@@@std@@QAEPAU?$_List_node@U?$pair@$$CBHPAVDisplayableObject@@@std@@PAX@2@I@Z 0041cb90 f i BaseEngine.obj
 0001:0001bbc0       ?allocate@?$allocator@V?$_List_unchecked_iterator@V?$_List_val@U?$_List_simple_types@U?$pair@$$CBHPAVDisplayableObject@@@std@@@std@@@std@@@std@@@std@@QAEPAV?$_List_unchecked_iterator@V?$_List_val@U?$_List_simple_types@U?$pair@$$CBHPAVDisplayableObject@@@std@@@std@@@std@@@2@I@Z 0041cbc0 f i BaseEngine.obj
 0001:0001bbf0       ?assign@?$vector@V?$_List_unchecked_iterator@V?$_List_val@U?$_List_simple_types@U?$pair@$$CBHPAVDisplayableObject@@@std@@@std@@@std@@@std@@U?$_Wrap_alloc@V?$allocator@V?$_List_unchecked_iterator@V?$_List_val@U?$_List_simple_types@U?$pair@$$CBHPAVDisplayableObject@@@std@@@std@@@std@@@std@@@std@@@2@@std@@QAEXIABV?$_List_unchecked_iterator@V?$_List_val@U?$_List_simple_types@U?$pair@$$CBHPAVDisplayableObject@@@std@@@std@@@std@@@2@@Z 0041cbf0 f i BaseEngine.obj
 0001:0001bc50       ?at@?$unordered_map@HPAVDisplayableObject@@U?$hash@H@std@@U?$equal_to@H@3@V?$allocator@U?$pair@$$CBHPAVDisplayableObject@@@std@@@3@@std@@QAEAAPAVDisplayableObject@@ABH@Z 0041cc50 f i BaseEngine.obj
 0001:0001bcc0       ?begin@?$_Hash@V?$_Umap_traits@HPAVDisplayableObject@@V?$_Uhash_compare@HU?$hash@H@std@@U?$equal_to@H@2@@std@@V?$allocator@U?$pair@$$CBHPAVDisplayableObject@@@std@@@3@$0A@@std@@@std@@QAE?AV?$_List_iterator@V?$_List_val@U?$_List_simple_types@U?$pair@$$CBHPAVDisplayableObject@@@std@@@std@@@std@@@2@XZ 0041ccc0 f i BaseEngine.obj
 0001:0001bcf0       ?begin@?$list@U?$pair@$$CBHPAVDisplayableObject@@@std@@V?$allocator@U?$pair@$$CBHPAVDisplayableObject@@@std@@@2@@std@@QAE?AV?$_List_iterator@V?$_List_val@U?$_List_simple_types@U?$pair@$$CBHPAVDisplayableObject@@@std@@@std@@@std@@@2@XZ 0041ccf0 f i BaseEngine.obj
 0001:0001bd40       ?begin@?$vector@V?$_List_unchecked_iterator@V?$_List_val@U?$_List_simple_types@U?$pair@$$CBHPAVDisplayableObject@@@std@@@std@@@std@@@std@@U?$_Wrap_alloc@V?$allocator@V?$_List_unchecked_iterator@V?$_List_val@U?$_List_simple_types@U?$pair@$$CBHPAVDisplayableObject@@@std@@@std@@@std@@@std@@@std@@@2@@std@@QAE?AV?$_Vector_iterator@V?$_Vector_val@U?$_Simple_types@V?$_List_unchecked_iterator@V?$_List_val@U?$_List_simple_types@U?$pair@$$CBHPAVDisplayableObject@@@std@@@std@@@std@@@std@@@std@@@std@@@2@XZ 0041cd40 f i BaseEngine.obj
 0001:0001bd80       ?bucket_count@?$_Hash@V?$_Umap_traits@HPAVDisplayableObject@@V?$_Uhash_compare@HU?$hash@H@std@@U?$equal_to@H@2@@std@@V?$allocator@U?$pair@$$CBHPAVDisplayableObject@@@std@@@3@$0A@@std@@@std@@QBEIXZ 0041cd80 f i BaseEngine.obj
 0001:0001bda0       ?capacity@?$vector@V?$_List_unchecked_iterator@V?$_List_val@U?$_List_simple_types@U?$pair@$$CBHPAVDisplayableObject@@@std@@@std@@@std@@@std@@U?$_Wrap_alloc@V?$allocator@V?$_List_unchecked_iterator@V?$_List_val@U?$_List_simple_types@U?$pair@$$CBHPAVDisplayableObject@@@std@@@std@@@std@@@std@@@std@@@2@@std@@QBEIXZ 0041cda0 f i BaseEngine.obj
 0001:0001bdd0       ?clear@?$_Hash@V?$_Umap_traits@HPAVDisplayableObject@@V?$_Uhash_compare@HU?$hash@H@std@@U?$equal_to@H@2@@std@@V?$allocator@U?$pair@$$CBHPAVDisplayableObject@@@std@@@3@$0A@@std@@@std@@QAEXXZ 0041cdd0 f i BaseEngine.obj
 0001:0001be00       ?clear@?$list@U?$pair@$$CBHPAVDisplayableObject@@@std@@V?$allocator@U?$pair@$$CBHPAVDisplayableObject@@@std@@@2@@std@@QAEXXZ 0041ce00 f i BaseEngine.obj
 0001:0001beb0       ?clear@?$vector@V?$_List_unchecked_iterator@V?$_List_val@U?$_List_simple_types@U?$pair@$$CBHPAVDisplayableObject@@@std@@@std@@@std@@@std@@U?$_Wrap_alloc@V?$allocator@V?$_List_unchecked_iterator@V?$_List_val@U?$_List_simple_types@U?$pair@$$CBHPAVDisplayableObject@@@std@@@std@@@std@@@std@@@std@@@2@@std@@QAEXXZ 0041ceb0 f i BaseEngine.obj
 0001:0001bf00       ?construct@?$allocator@V?$_List_unchecked_iterator@V?$_List_val@U?$_List_simple_types@U?$pair@$$CBHPAVDisplayableObject@@@std@@@std@@@std@@@std@@@std@@QAEXPAV?$_List_unchecked_iterator@V?$_List_val@U?$_List_simple_types@U?$pair@$$CBHPAVDisplayableObject@@@std@@@std@@@std@@@2@ABV32@@Z 0041cf00 f i BaseEngine.obj
 0001:0001bf60       ?deallocate@?$_Wrap_alloc@U?$_Wrap_alloc@V?$allocator@V?$_List_unchecked_iterator@V?$_List_val@U?$_List_simple_types@U?$pair@$$CBHPAVDisplayableObject@@@std@@@std@@@std@@@std@@@std@@@std@@@std@@QAEXPAV?$_List_unchecked_iterator@V?$_List_val@U?$_List_simple_types@U?$pair@$$CBHPAVDisplayableObject@@@std@@@std@@@std@@@2@I@Z 0041cf60 f i BaseEngine.obj
 0001:0001bf90       ?deallocate@?$_Wrap_alloc@V?$allocator@U?$_List_node@U?$pair@$$CBHPAVDisplayableObject@@@std@@PAX@std@@@std@@@std@@QAEXPAU?$_List_node@U?$pair@$$CBHPAVDisplayableObject@@@std@@PAX@2@I@Z 0041cf90 f i BaseEngine.obj
 0001:0001bfc0       ?deallocate@?$_Wrap_alloc@V?$allocator@V?$_List_unchecked_iterator@V?$_List_val@U?$_List_simple_types@U?$pair@$$CBHPAVDisplayableObject@@@std@@@std@@@std@@@std@@@std@@@std@@QAEXPAV?$_List_unchecked_iterator@V?$_List_val@U?$_List_simple_types@U?$pair@$$CBHPAVDisplayableObject@@@std@@@std@@@std@@@2@I@Z 0041cfc0 f i BaseEngine.obj
 0001:0001bff0       ?deallocate@?$allocator@U?$_List_node@U?$pair@$$CBHPAVDisplayableObject@@@std@@PAX@std@@@std@@QAEXPAU?$_List_node@U?$pair@$$CBHPAVDisplayableObject@@@std@@PAX@2@I@Z 0041cff0 f i BaseEngine.obj
 0001:0001c020       ?deallocate@?$allocator@V?$_List_unchecked_iterator@V?$_List_val@U?$_List_simple_types@U?$pair@$$CBHPAVDisplayableObject@@@std@@@std@@@std@@@std@@@std@@QAEXPAV?$_List_unchecked_iterator@V?$_List_val@U?$_List_simple_types@U?$pair@$$CBHPAVDisplayableObject@@@std@@@std@@@std@@@2@I@Z 0041d020 f i BaseEngine.obj
 0001:0001c050       ?empty@?$_Hash@V?$_Umap_traits@HPAVDisplayableObject@@V?$_Uhash_compare@HU?$hash@H@std@@U?$equal_to@H@2@@std@@V?$allocator@U?$pair@$$CBHPAVDisplayableObject@@@std@@@3@$0A@@std@@@std@@QBE_NXZ 0041d050 f i BaseEngine.obj
 0001:0001c080       ?empty@?$list@U?$pair@$$CBHPAVDisplayableObject@@@std@@V?$allocator@U?$pair@$$CBHPAVDisplayableObject@@@std@@@2@@std@@QBE_NXZ 0041d080 f i BaseEngine.obj
 0001:0001c0c0       ?end@?$_Hash@V?$_Umap_traits@HPAVDisplayableObject@@V?$_Uhash_compare@HU?$hash@H@std@@U?$equal_to@H@2@@std@@V?$allocator@U?$pair@$$CBHPAVDisplayableObject@@@std@@@3@$0A@@std@@@std@@QAE?AV?$_List_iterator@V?$_List_val@U?$_List_simple_types@U?$pair@$$CBHPAVDisplayableObject@@@std@@@std@@@std@@@2@XZ 0041d0c0 f i BaseEngine.obj
 0001:0001c0f0       ?end@?$list@U?$pair@$$CBHPAVDisplayableObject@@@std@@V?$allocator@U?$pair@$$CBHPAVDisplayableObject@@@std@@@2@@std@@QAE?AV?$_List_iterator@V?$_List_val@U?$_List_simple_types@U?$pair@$$CBHPAVDisplayableObject@@@std@@@std@@@std@@@2@XZ 0041d0f0 f i BaseEngine.obj
 0001:0001c130       ?erase@?$list@U?$pair@$$CBHPAVDisplayableObject@@@std@@V?$allocator@U?$pair@$$CBHPAVDisplayableObject@@@std@@@2@@std@@QAE?AV?$_List_iterator@V?$_List_val@U?$_List_simple_types@U?$pair@$$CBHPAVDisplayableObject@@@std@@@std@@@std@@@2@V?$_List_const_iterator@V?$_List_val@U?$_List_simple_types@U?$pair@$$CBHPAVDisplayableObject@@@std@@@std@@@std@@@2@@Z 0041d130 f i BaseEngine.obj
 0001:0001c1a0       ?front@?$list@U?$pair@$$CBHPAVDisplayableObject@@@std@@V?$allocator@U?$pair@$$CBHPAVDisplayableObject@@@std@@@2@@std@@QAEAAU?$pair@$$CBHPAVDisplayableObject@@@2@XZ 0041d1a0 f i BaseEngine.obj
 0001:0001c1d0       ?insert@?$vector@V?$_List_unchecked_iterator@V?$_List_val@U?$_List_simple_types@U?$pair@$$CBHPAVDisplayableObject@@@std@@@std@@@std@@@std@@U?$_Wrap_alloc@V?$allocator@V?$_List_unchecked_iterator@V?$_List_val@U?$_List_simple_types@U?$pair@$$CBHPAVDisplayableObject@@@std@@@std@@@std@@@std@@@std@@@2@@std@@QAE?AV?$_Vector_iterator@V?$_Vector_val@U?$_Simple_types@V?$_List_unchecked_iterator@V?$_List_val@U?$_List_simple_types@U?$pair@$$CBHPAVDisplayableObject@@@std@@@std@@@std@@@std@@@std@@@std@@@2@V?$_Vector_const_iterator@V?$_Vector_val@U?$_Simple_types@V?$_List_unchecked_iterator@V?$_List_val@U?$_List_simple_types@U?$pair@$$CBHPAVDisplayableObject@@@std@@@std@@@std@@@std@@@std@@@std@@@2@IABV?$_List_unchecked_iterator@V?$_List_val@U?$_List_simple_types@U?$pair@$$CBHPAVDisplayableObject@@@std@@@std@@@std@@@2@@Z 0041d1d0 f i BaseEngine.obj
 0001:0001c210       ?load_factor@?$_Hash@V?$_Umap_traits@HPAVDisplayableObject@@V?$_Uhash_compare@HU?$hash@H@std@@U?$equal_to@H@2@@std@@V?$allocator@U?$pair@$$CBHPAVDisplayableObject@@@std@@@3@$0A@@std@@@std@@QBEMXZ 0041d210 f i BaseEngine.obj
 0001:0001c2b0       ?lower_bound@?$_Hash@V?$_Umap_traits@HPAVDisplayableObject@@V?$_Uhash_compare@HU?$hash@H@std@@U?$equal_to@H@2@@std@@V?$allocator@U?$pair@$$CBHPAVDisplayableObject@@@std@@@3@$0A@@std@@@std@@QAE?AV?$_List_iterator@V?$_List_val@U?$_List_simple_types@U?$pair@$$CBHPAVDisplayableObject@@@std@@@std@@@std@@@2@ABH@Z 0041d2b0 f i BaseEngine.obj
 0001:0001c3f0       ?max_load_factor@?$_Hash@V?$_Umap_traits@HPAVDisplayableObject@@V?$_Uhash_compare@HU?$hash@H@std@@U?$equal_to@H@2@@std@@V?$allocator@U?$pair@$$CBHPAVDisplayableObject@@@std@@@3@$0A@@std@@@std@@QBEMXZ 0041d3f0 f i BaseEngine.obj
 0001:0001c420       ?max_size@?$_Wrap_alloc@U?$_Wrap_alloc@V?$allocator@V?$_List_unchecked_iterator@V?$_List_val@U?$_List_simple_types@U?$pair@$$CBHPAVDisplayableObject@@@std@@@std@@@std@@@std@@@std@@@std@@@std@@QBEIXZ 0041d420 f i BaseEngine.obj
 0001:0001c450       ?max_size@?$_Wrap_alloc@V?$allocator@U?$_List_node@U?$pair@$$CBHPAVDisplayableObject@@@std@@PAX@std@@@std@@@std@@QBEIXZ 0041d450 f i BaseEngine.obj
 0001:0001c480       ?max_size@?$_Wrap_alloc@V?$allocator@V?$_List_unchecked_iterator@V?$_List_val@U?$_List_simple_types@U?$pair@$$CBHPAVDisplayableObject@@@std@@@std@@@std@@@std@@@std@@@std@@QBEIXZ 0041d480 f i BaseEngine.obj
 0001:0001c4b0       ?max_size@?$allocator@U?$_List_node@U?$pair@$$CBHPAVDisplayableObject@@@std@@PAX@std@@@std@@QBEIXZ 0041d4b0 f i BaseEngine.obj
 0001:0001c4d0       ?max_size@?$allocator@V?$_List_unchecked_iterator@V?$_List_val@U?$_List_simple_types@U?$pair@$$CBHPAVDisplayableObject@@@std@@@std@@@std@@@std@@@std@@QBEIXZ 0041d4d0 f i BaseEngine.obj
 0001:0001c4f0       ?max_size@?$allocator_traits@U?$_Wrap_alloc@V?$allocator@V?$_List_unchecked_iterator@V?$_List_val@U?$_List_simple_types@U?$pair@$$CBHPAVDisplayableObject@@@std@@@std@@@std@@@std@@@std@@@std@@@std@@SAIABU?$_Wrap_alloc@V?$allocator@V?$_List_unchecked_iterator@V?$_List_val@U?$_List_simple_types@U?$pair@$$CBHPAVDisplayableObject@@@std@@@std@@@std@@@std@@@std@@@2@@Z 0041d4f0 f i BaseEngine.obj
 0001:0001c520       ?max_size@?$allocator_traits@V?$allocator@U?$_List_node@U?$pair@$$CBHPAVDisplayableObject@@@std@@PAX@std@@@std@@@std@@SAIABV?$allocator@U?$_List_node@U?$pair@$$CBHPAVDisplayableObject@@@std@@PAX@std@@@2@@Z 0041d520 f i BaseEngine.obj
 0001:0001c540       ?max_size@?$allocator_traits@V?$allocator@V?$_List_unchecked_iterator@V?$_List_val@U?$_List_simple_types@U?$pair@$$CBHPAVDisplayableObject@@@std@@@std@@@std@@@std@@@std@@@std@@SAIABV?$allocator@V?$_List_unchecked_iterator@V?$_List_val@U?$_List_simple_types@U?$pair@$$CBHPAVDisplayableObject@@@std@@@std@@@std@@@std@@@2@@Z 0041d540 f i BaseEngine.obj
 0001:0001c560       ?max_size@?$list@U?$pair@$$CBHPAVDisplayableObject@@@std@@V?$allocator@U?$pair@$$CBHPAVDisplayableObject@@@std@@@2@@std@@QBEIXZ 0041d560 f i BaseEngine.obj
 0001:0001c590       ?max_size@?$vector@V?$_List_unchecked_iterator@V?$_List_val@U?$_List_simple_types@U?$pair@$$CBHPAVDisplayableObject@@@std@@@std@@@std@@@std@@U?$_Wrap_alloc@V?$allocator@V?$_List_unchecked_iterator@V?$_List_val@U?$_List_simple_types@U?$pair@$$CBHPAVDisplayableObject@@@std@@@std@@@std@@@std@@@std@@@2@@std@@QBEIXZ 0041d590 f i BaseEngine.obj
 0001:0001c5c0       ?pointer_to@?$pointer_traits@PAU?$pair@$$CBHPAVDisplayableObject@@@std@@@std@@SAPAU?$pair@$$CBHPAVDisplayableObject@@@2@AAU32@@Z 0041d5c0 f i BaseEngine.obj
 0001:0001c5f0       ?size@?$_Hash@V?$_Umap_traits@HPAVDisplayableObject@@V?$_Uhash_compare@HU?$hash@H@std@@U?$equal_to@H@2@@std@@V?$allocator@U?$pair@$$CBHPAVDisplayableObject@@@std@@@3@$0A@@std@@@std@@QBEIXZ 0041d5f0 f i BaseEngine.obj
 0001:0001c620       ?size@?$list@U?$pair@$$CBHPAVDisplayableObject@@@std@@V?$allocator@U?$pair@$$CBHPAVDisplayableObject@@@std@@@2@@std@@QBEIXZ 0041d620 f i BaseEngine.obj
 0001:0001c640       ?size@?$vector@V?$_List_unchecked_iterator@V?$_List_val@U?$_List_simple_types@U?$pair@$$CBHPAVDisplayableObject@@@std@@@std@@@std@@@std@@U?$_Wrap_alloc@V?$allocator@V?$_List_unchecked_iterator@V?$_List_val@U?$_List_simple_types@U?$pair@$$CBHPAVDisplayableObject@@@std@@@std@@@std@@@std@@@std@@@2@@std@@QBEIXZ 0041d640 f i BaseEngine.obj
 0001:0001c670       ??0DisplayableObject@@QAE@PAVBaseEngine@@@Z 0041d670 f   DisplayableObject.obj
 0001:0001c710       ??1DisplayableObject@@UAE@XZ 0041d710 f   DisplayableObject.obj
 0001:0001c740       ??_EDisplayableObject@@UAEPAXI@Z 0041d740 f i DisplayableObject.obj
 0001:0001c740       ??_GDisplayableObject@@UAEPAXI@Z 0041d740 f i DisplayableObject.obj
 0001:0001c790       ?DoUpdate@DisplayableObject@@UAEXH@Z 0041d790 f   DisplayableObject.obj
 0001:0001c7b0       ?Draw@DisplayableObject@@UAEXXZ 0041d7b0 f   DisplayableObject.obj
 0001:0001c870       ?RedrawBackground@DisplayableObject@@UAEXXZ 0041d870 f   DisplayableObject.obj
 0001:0001c8d0       ?SafeSetScreenPixel@BaseEngine@@QAEXHHI@Z 0041d8d0 f i DisplayableObject.obj
 0001:0001c910       ?StoreLastScreenPositionForUndraw@DisplayableObject@@QAEXXZ 0041d910 f   DisplayableObject.obj
 0001:0001c950       ??$GrowArray@PAVFont@@@@YAPAPAVFont@@PAPAV0@AAHH@Z 0041d950 f i FontManager.obj
 0001:0001ca10       ??0Font@@QAE@PBDH@Z        0041da10 f i FontManager.obj
 0001:0001ca90       ??0FontManager@@QAE@XZ     0041da90 f   FontManager.obj
 0001:0001cb20       ??1Font@@QAE@XZ            0041db20 f i FontManager.obj
 0001:0001cba0       ??1FontManager@@QAE@XZ     0041dba0 f   FontManager.obj
 0001:0001cc40       ??_GFont@@QAEPAXI@Z        0041dc40 f i FontManager.obj
 0001:0001cc90       ?GetFont@FontManager@@QAEPAVFont@@PBDH@Z 0041dc90 f   FontManager.obj
 0001:0001ceb0       ?GetName@Font@@QAEPBDXZ    0041deb0 f i FontManager.obj
 0001:0001ced0       ?GetSize@Font@@QAEHXZ      0041ded0 f i FontManager.obj
 0001:0001cef0       ?LoadFonts@FontManager@@QAEXXZ 0041def0 f   FontManager.obj
 0001:0001cf80       ?DeinitImage@@YAXXZ        0041df80 f   JPGImage.obj
 0001:0001cfa0       ?FlexibleRenderImageWithMask@ImageData@@QBEXPAUSDL_Surface@@HHHHHHHHHHHHHH@Z 0041dfa0 f   JPGImage.obj
 0001:0001d5b0       ?GetXForRotationAndCrop@@YAHHHHHHH@Z 0041e5b0 f i JPGImage.obj
 0001:0001d630       ?GetYForRotationAndCrop@@YAHHHHHHH@Z 0041e630 f i JPGImage.obj
 0001:0001d6b0       ?InitImage@@YAXXZ          0041e6b0 f   JPGImage.obj
 0001:0001d6d0       ?LoadImage@ImageData@@QAE_NPBD@Z 0041e6d0 f   JPGImage.obj
 0001:0001da30       ?RenderImage@ImageData@@QBEXPAUSDL_Surface@@HHHHHH@Z 0041ea30 f   JPGImage.obj
 0001:0001dbb0       ?RenderImageWithMask@ImageData@@QBEXPAUSDL_Surface@@HHHHHH@Z 0041ebb0 f   JPGImage.obj
 0001:0001dd80       ?ResizeFrom@ImageData@@QAEXPBV1@HH_N@Z 0041ed80 f   JPGImage.obj
 0001:0001e280       ?ShrinkFrom@ImageData@@QAEXPBV1@H@Z 0041f280 f   JPGImage.obj
 0001:0001e4f0       ??0Psyml5Engine@@QAE@XZ    0041f4f0 f   Psyml5Engine.obj
 0001:0001e590       ??1Psyml5Engine@@UAE@XZ    0041f590 f   Psyml5Engine.obj
 0001:0001e620       ??_GPsyml5Engine@@UAEPAXI@Z 0041f620 f i Psyml5Engine.obj
 0001:0001e620       ??_EPsyml5Engine@@UAEPAXI@Z 0041f620 f i Psyml5Engine.obj
 0001:0001e670       ?DrawBackgroundPolygon@BaseEngine@@QAEXNNNNNNNNI@Z 0041f670 f i Psyml5Engine.obj
 0001:0001e730       ?DrawBackgroundPolygon@BaseEngine@@QAEXNNNNNNNNNNNNNNNNI@Z 0041f730 f i Psyml5Engine.obj
 0001:0001e870       ?DrawStringsOnTop@Psyml5Engine@@MAEXXZ 0041f870 f   Psyml5Engine.obj
 0001:0001e900       ?DrawStringsUnderneath@Psyml5Engine@@MAEXXZ 0041f900 f   Psyml5Engine.obj
 0001:0001e940       ?InitialiseObjects@Psyml5Engine@@UAEHXZ 0041f940 f   Psyml5Engine.obj
 0001:0001eb40       ?MouseDown@Psyml5Engine@@UAEXHHH@Z 0041fb40 f   Psyml5Engine.obj
 0001:0001ebb0       ?SetupBackgroundBuffer@Psyml5Engine@@UAEXXZ 0041fbb0 f   Psyml5Engine.obj
 0001:0001f080       ?UnDrawStrings@Psyml5Engine@@MAEXXZ 00420080 f   Psyml5Engine.obj
 0001:0001f0c0       ??0Psyml5Object1@@QAE@PAVBaseEngine@@@Z 004200c0 f   Psyml5Object1.obj
 0001:0001f230       ??1Psyml5Object1@@UAE@XZ   00420230 f   Psyml5Object1.obj
 0001:0001f260       ??_EPsyml5Object1@@UAEPAXI@Z 00420260 f i Psyml5Object1.obj
 0001:0001f260       ??_GPsyml5Object1@@UAEPAXI@Z 00420260 f i Psyml5Object1.obj
 0001:0001f2b0       ?DoUpdate@Psyml5Object1@@UAEXH@Z 004202b0 f   Psyml5Object1.obj
 0001:0001f630       ?Draw@Psyml5Object1@@UAEXXZ 00420630 f   Psyml5Object1.obj
 0001:0001f820       ??0MovementPosition@@QAE@XZ 00420820 f i Psyml5Object2.obj
 0001:0001f8a0       ??0Psyml5Object2@@QAE@PAVBaseEngine@@@Z 004208a0 f   Psyml5Object2.obj
 0001:0001fa40       ??1Psyml5Object2@@UAE@XZ   00420a40 f   Psyml5Object2.obj
 0001:0001fa70       ??_EPsyml5Object2@@UAEPAXI@Z 00420a70 f i Psyml5Object2.obj
 0001:0001fa70       ??_GPsyml5Object2@@UAEPAXI@Z 00420a70 f i Psyml5Object2.obj
 0001:0001fac0       ?Calculate@MovementPosition@@QAEXH@Z 00420ac0 f i Psyml5Object2.obj
 0001:0001fbc0       ?DoUpdate@Psyml5Object2@@UAEXH@Z 00420bc0 f   Psyml5Object2.obj
 0001:00020090       ?Draw@Psyml5Object2@@UAEXXZ 00421090 f   Psyml5Object2.obj
 0001:00020130       ?DrawScreenOval@BaseEngine@@QAEXHHHHI@Z 00421130 f i Psyml5Object2.obj
 0001:00020180       ?GetX@MovementPosition@@QBEHXZ 00421180 f i Psyml5Object2.obj
 0001:000201a0       ?GetY@MovementPosition@@QBEHXZ 004211a0 f i Psyml5Object2.obj
 0001:000201c0       ?SetColor@Psyml5Object2@@QAEHXZ 004211c0 f   Psyml5Object2.obj
 0001:00020220       ?SetMovement@Psyml5Object2@@QAEXHHHHHHH@Z 00421220 f   Psyml5Object2.obj
 0001:000202b0       ?SetPosition@Psyml5Object2@@QAEXNN@Z 004212b0 f   Psyml5Object2.obj
 0001:000202f0       ?SetSpeed@Psyml5Object2@@QAEXNN@Z 004212f0 f   Psyml5Object2.obj
 0001:00020330       ?Setup@MovementPosition@@QAEXHHHHHH@Z 00421330 f i Psyml5Object2.obj
 0001:000203b0       ??0Psyml5TileManager@@QAE@XZ 004213b0 f   Psyml5TileManager.obj
 0001:000203f0       ??0TileManager@@QAE@HH@Z   004213f0 f i Psyml5TileManager.obj
 0001:00020470       ??1Psyml5TileManager@@QAE@XZ 00421470 f   Psyml5TileManager.obj
 0001:000204a0       ??1TileManager@@QAE@XZ     004214a0 f i Psyml5TileManager.obj
 0001:00020500       ?DrawTile@TileManager@@UBEXPAVBaseEngine@@PAUSDL_Surface@@HH@Z 00421500 f i Psyml5TileManager.obj
 0001:00020570       ?DrawTile@TileManager@@UBEXPAVBaseEngine@@PAUSDL_Surface@@HHHH@Z 00421570 f i Psyml5TileManager.obj
 0001:000205c0       ?DrawTileAt@Psyml5TileManager@@UBEXPAVBaseEngine@@PAUSDL_Surface@@HHHH@Z 004215c0 f   Psyml5TileManager.obj
 0001:00020640       ?GetValue@TileManager@@QBEHHH@Z 00421640 f i Psyml5TileManager.obj
 0001:00020680       ??0RunningPig@@QAE@PAVGoldenManEngine@@HH@Z 00421680 f   RunningPig.obj
 0001:00020940       ??0RunningPig@@QAE@PAVGoldenManEngine@@HHH@Z 00421940 f   RunningPig.obj
 0001:00020ae0       ??1RunningPig@@UAE@XZ      00421ae0 f   RunningPig.obj
 0001:00020be0       ??_ERunningPig@@UAEPAXI@Z  00421be0 f i RunningPig.obj
 0001:00020be0       ??_GRunningPig@@UAEPAXI@Z  00421be0 f i RunningPig.obj
 0001:00020c30       ?ChangeDirection@RunningPig@@QAEXH@Z 00421c30 f   RunningPig.obj
 0001:00020c80       ?DoUpdate@RunningPig@@UAEXH@Z 00421c80 f   RunningPig.obj
 0001:00020de0       ?Draw@RunningPig@@UAEXXZ   00421de0 f   RunningPig.obj
 0001:00021310       ?ExplodeDetection@RunningPig@@QAEXXZ 00422310 f   RunningPig.obj
 0001:000213d0       ?GetDirection@RunningPig@@QAEHXZ 004223d0 f   RunningPig.obj
 0001:000213f0       ?GetPigX@RunningPig@@QAEHXZ 004223f0 f   RunningPig.obj
 0001:00021410       ?GetPigY@RunningPig@@QAEHXZ 00422410 f   RunningPig.obj
 0001:00021430       ?StoneDetection@RunningPig@@QAEXXZ 00422430 f   RunningPig.obj
 0001:000215d0       ??0RunningPigDiamond@@QAE@PAVGoldenManEngine@@HH@Z 004225d0 f   RunningPigDiamond.obj
 0001:00021820       ??1RunningPigDiamond@@UAE@XZ 00422820 f   RunningPigDiamond.obj
 0001:00021850       ??_ERunningPigDiamond@@UAEPAXI@Z 00422850 f i RunningPigDiamond.obj
 0001:00021850       ??_GRunningPigDiamond@@UAEPAXI@Z 00422850 f i RunningPigDiamond.obj
 0001:000218a0       ?DiamondSearchAndStamp@RunningPigDiamond@@QAEXXZ 004228a0 f   RunningPigDiamond.obj
 0001:00021c40       ?DoUpdate@RunningPigDiamond@@UAEXH@Z 00422c40 f   RunningPigDiamond.obj
 0001:00021e80       ?Draw@RunningPigDiamond@@UAEXXZ 00422e80 f   RunningPigDiamond.obj
 0001:000222d0       ??0SimpleShape@@QAE@PAVSimpleDemo@@@Z 004232d0 f i SimpleDemo.obj
 0001:00022420       ??1SimpleShape@@UAE@XZ     00423420 f i SimpleDemo.obj
 0001:00022450       ??_ESimpleShape@@UAEPAXI@Z 00423450 f i SimpleDemo.obj
 0001:00022450       ??_GSimpleShape@@UAEPAXI@Z 00423450 f i SimpleDemo.obj
 0001:000224a0       ?DoUpdate@SimpleShape@@UAEXH@Z 004234a0 f i SimpleDemo.obj
 0001:00022920       ?Draw@SimpleShape@@UAEXXZ  00423920 f i SimpleDemo.obj
 0001:000229d0       ?DrawStringsOnTop@SimpleDemo@@UAEXXZ 004239d0 f   SimpleDemo.obj
 0001:00022a80       ?DrawStringsUnderneath@SimpleDemo@@UAEXXZ 00423a80 f   SimpleDemo.obj
 0001:00022b20       ?GameAction@SimpleDemo@@UAEXXZ 00423b20 f   SimpleDemo.obj
 0001:00022b80       ?InitialiseObjects@SimpleDemo@@UAEHXZ 00423b80 f   SimpleDemo.obj
 0001:00022c60       ?KeyDown@SimpleDemo@@UAEXH@Z 00423c60 f   SimpleDemo.obj
 0001:00022ca0       ?MouseDown@SimpleDemo@@UAEXHHH@Z 00423ca0 f   SimpleDemo.obj
 0001:00022ce0       ?SetupBackgroundBuffer@SimpleDemo@@UAEXXZ 00423ce0 f   SimpleDemo.obj
 0001:00022e70       ?UnDrawStrings@SimpleDemo@@UAEXXZ 00423e70 f   SimpleDemo.obj
 0001:00022eb0       ??0StableObject@@QAE@PAVGoldenManEngine@@HHHH@Z 00423eb0 f   StableObject.obj
 0001:00022f30       ??1StableObject@@UAE@XZ    00423f30 f   StableObject.obj
 0001:00022f60       ??_GStableObject@@UAEPAXI@Z 00423f60 f i StableObject.obj
 0001:00022f60       ??_EStableObject@@UAEPAXI@Z 00423f60 f i StableObject.obj
 0001:00022fb0       ?BombDetection@StableObject@@QAEXXZ 00423fb0 f   StableObject.obj
 0001:000230c0       ?DoUpdate@StableObject@@UAEXH@Z 004240c0 f   StableObject.obj
 0001:00023120       ?Draw@StableObject@@UAEXXZ 00424120 f   StableObject.obj
 0001:00023140       ?GetGMode@StableObject@@QAEHXZ 00424140 f   StableObject.obj
 0001:00023160       ?GetX@StableObject@@QAEHXZ 00424160 f   StableObject.obj
 0001:00023180       ?GetY@StableObject@@QAEHXZ 00424180 f   StableObject.obj
 0001:000231a0       ?IsExist@StableObject@@QAE_NXZ 004241a0 f   StableObject.obj
 0001:000231d0       ??0StoneObject@@QAE@PAVGoldenManEngine@@HH@Z 004241d0 f   StoneObject.obj
 0001:00023330       ??1StoneObject@@UAE@XZ     00424330 f   StoneObject.obj
 0001:000233c0       ??_GStoneObject@@UAEPAXI@Z 004243c0 f i StoneObject.obj
 0001:000233c0       ??_EStoneObject@@UAEPAXI@Z 004243c0 f i StoneObject.obj
 0001:00023410       ?DoUpdate@StoneObject@@UAEXH@Z 00424410 f   StoneObject.obj
 0001:00023450       ?Draw@StoneObject@@UAEXXZ  00424450 f   StoneObject.obj
 0001:00023550       ?DrawAllTilesAt@TileManager@@QBEXPAVBaseEngine@@PAUSDL_Surface@@HHHHHH@Z 00424550 f   TileManager.obj
 0001:00023610       ?DrawTileAt@TileManager@@UBEXPAVBaseEngine@@PAUSDL_Surface@@HHHH@Z 00424610 f   TileManager.obj
 0001:000236b0       ?UpdateTileAt@TileManager@@QAEXPAVBaseEngine@@HHHHH@Z 004246b0 f   TileManager.obj
 0001:00023750       ??0BouncingBall1@@QAE@PAVBouncingBallMain@@HHHHPADHHPAVTileManager@@@Z 00424750 f   BouncingBall.obj
 0001:00023810       ??0BouncingBall2@@QAE@PAVBouncingBallMain@@HHHHPADHH@Z 00424810 f   BouncingBall.obj
 0001:000238c0       ??0BouncingBall@@QAE@PAVBouncingBallMain@@HHHHPADHH@Z 004248c0 f   BouncingBall.obj
 0001:00023a30       ??1BouncingBall1@@UAE@XZ   00424a30 f i BouncingBall.obj
 0001:00023a60       ??1BouncingBall2@@UAE@XZ   00424a60 f i BouncingBall.obj
 0001:00023a90       ??1BouncingBall@@UAE@XZ    00424a90 f   BouncingBall.obj
 0001:00023ac0       ??_GBouncingBall1@@UAEPAXI@Z 00424ac0 f i BouncingBall.obj
 0001:00023ac0       ??_EBouncingBall1@@UAEPAXI@Z 00424ac0 f i BouncingBall.obj
 0001:00023b10       ??_EBouncingBall2@@UAEPAXI@Z 00424b10 f i BouncingBall.obj
 0001:00023b10       ??_GBouncingBall2@@UAEPAXI@Z 00424b10 f i BouncingBall.obj
 0001:00023b60       ??_GBouncingBall@@UAEPAXI@Z 00424b60 f i BouncingBall.obj
 0001:00023b60       ??_EBouncingBall@@UAEPAXI@Z 00424b60 f i BouncingBall.obj
 0001:00023bb0       ?DoUpdate@BouncingBall1@@UAEXH@Z 00424bb0 f   BouncingBall.obj
 0001:00023d20       ?DoUpdate@BouncingBall2@@UAEXH@Z 00424d20 f   BouncingBall.obj
 0001:00024170       ?DoUpdate@BouncingBall@@UAEXH@Z 00425170 f   BouncingBall.obj
 0001:000241a0       ?Draw@BouncingBall@@UAEXXZ 004251a0 f   BouncingBall.obj
 0001:000244e0       ?GetTileXForPositionOnScreen@TileManager@@QBEHH@Z 004254e0 f i BouncingBall.obj
 0001:00024520       ?GetTileYForPositionOnScreen@TileManager@@QBEHH@Z 00425520 f i BouncingBall.obj
 0001:00024560       ?HasMovementFinished@MovementPosition@@QBE_NH@Z 00425560 f i BouncingBall.obj
 0001:000245a0       ?IsValidTilePosition@TileManager@@QBE_NHH@Z 004255a0 f i BouncingBall.obj
 0001:00024630       ?Reverse@MovementPosition@@QAEXXZ 00425630 f i BouncingBall.obj
 0001:000246b0       ?SetMovement@BouncingBall1@@QAEXHHHHHHH@Z 004256b0 f   BouncingBall.obj
 0001:00024740       ?SetPosition@BouncingBall2@@QAEXNN@Z 00425740 f   BouncingBall.obj
 0001:00024780       ?SetSpeed@BouncingBall2@@QAEXNN@Z 00425780 f   BouncingBall.obj
 0001:000247c0       ?DrawBackgroundLine@BaseEngine@@QAEXHHHHI@Z 004257c0 f i BouncingBallMain.obj
 0001:00024840       ?DrawBackgroundPolygon@BaseEngine@@QAEXNNNNNNNNNNNNNNI@Z 00425840 f i BouncingBallMain.obj
 0001:00024950       ?DrawBackgroundTriangle@BaseEngine@@QAEXHHHHHHI@Z 00425950 f i BouncingBallMain.obj
 0001:000249f0       ?DrawBackgroundVerticalSidedRegion@BaseEngine@@QAEXNNNNNNI@Z 004259f0 f i BouncingBallMain.obj
 0001:00024a90       ?DrawStrings@BouncingBallMain@@UAEXXZ 00425a90 f   BouncingBallMain.obj
 0001:00024af0       ?InitialiseObjects@BouncingBallMain@@UAEHXZ 00425af0 f   BouncingBallMain.obj
 0001:00024e60       ?KeyDown@BouncingBallMain@@UAEXH@Z 00425e60 f   BouncingBallMain.obj
 0001:00024ea0       ?MouseDown@BouncingBallMain@@UAEXHHH@Z 00425ea0 f   BouncingBallMain.obj
 0001:00024ef0       ?SetupBackgroundBuffer@BouncingBallMain@@UAEXXZ 00425ef0 f   BouncingBallMain.obj
 0001:00025890       ??0Demo1Main@@QAE@XZ       00426890 f   Demo1Main.obj
 0001:000258d0       ??1Demo1Main@@UAE@XZ       004268d0 f   Demo1Main.obj
 0001:00025900       ??_EDemo1Main@@UAEPAXI@Z   00426900 f i Demo1Main.obj
 0001:00025900       ??_GDemo1Main@@UAEPAXI@Z   00426900 f i Demo1Main.obj
 0001:00025950       ?SetupBackgroundBuffer@Demo1Main@@UAEXXZ 00426950 f   Demo1Main.obj
 0001:00025980       ??0Demo2Main@@QAE@XZ       00426980 f   Demo2Main.obj
 0001:00025a10       ??1Demo2Main@@UAE@XZ       00426a10 f   Demo2Main.obj
 0001:00025aa0       ??_EDemo2Main@@UAEPAXI@Z   00426aa0 f i Demo2Main.obj
 0001:00025aa0       ??_GDemo2Main@@UAEPAXI@Z   00426aa0 f i Demo2Main.obj
 0001:00025af0       ?DrawStrings@Demo2Main@@UAEXXZ 00426af0 f   Demo2Main.obj
 0001:00025b50       ?GameAction@Demo2Main@@UAEXXZ 00426b50 f   Demo2Main.obj
 0001:00025bb0       ?InitialiseObjects@Demo2Main@@UAEHXZ 00426bb0 f   Demo2Main.obj
 0001:00025cb0       ?KeyDown@Demo2Main@@UAEXH@Z 00426cb0 f   Demo2Main.obj
 0001:00025cf0       ?MouseDown@Demo2Main@@UAEXHHH@Z 00426cf0 f   Demo2Main.obj
 0001:00025d10       ?SetupBackgroundBuffer@Demo2Main@@UAEXXZ 00426d10 f   Demo2Main.obj
 0001:00025e10       ??0Demo2Object@@QAE@PAVDemo2Main@@@Z 00426e10 f   Demo2Object.obj
 0001:00025f70       ??1Demo2Object@@UAE@XZ     00426f70 f   Demo2Object.obj
 0001:00025fa0       ??_EDemo2Object@@UAEPAXI@Z 00426fa0 f i Demo2Object.obj
 0001:00025fa0       ??_GDemo2Object@@UAEPAXI@Z 00426fa0 f i Demo2Object.obj
 0001:00025ff0       ?DoUpdate@Demo2Object@@UAEXH@Z 00426ff0 f   Demo2Object.obj
 0001:00026100       ?Draw@Demo2Object@@UAEXXZ  00427100 f   Demo2Object.obj
 0001:00026180       ??0Demo2TileManager@@QAE@XZ 00427180 f   Demo2TileManager.obj
 0001:000261c0       ??1Demo2TileManager@@QAE@XZ 004271c0 f   Demo2TileManager.obj
 0001:000261f0       ?DrawTileAt@Demo2TileManager@@UAEXPAVBaseEngine@@PAUSDL_Surface@@HHHH@Z 004271f0 f   Demo2TileManager.obj
 0001:00026270       ??0Demo3Main@@QAE@XZ       00427270 f   Demo3Main.obj
 0001:00026300       ??1Demo3Main@@UAE@XZ       00427300 f   Demo3Main.obj
 0001:00026390       ??_GDemo3Main@@UAEPAXI@Z   00427390 f i Demo3Main.obj
 0001:00026390       ??_EDemo3Main@@UAEPAXI@Z   00427390 f i Demo3Main.obj
 0001:000263e0       ?DrawStrings@Demo3Main@@UAEXXZ 004273e0 f   Demo3Main.obj
 0001:00026440       ?GameAction@Demo3Main@@UAEXXZ 00427440 f   Demo3Main.obj
 0001:000264a0       ?InitialiseObjects@Demo3Main@@UAEHXZ 004274a0 f   Demo3Main.obj
 0001:00026720       ?KeyDown@Demo3Main@@UAEXH@Z 00427720 f   Demo3Main.obj
 0001:00026760       ?MouseDown@Demo3Main@@UAEXHHH@Z 00427760 f   Demo3Main.obj
 0001:00026780       ?SetupBackgroundBuffer@Demo3Main@@UAEXXZ 00427780 f   Demo3Main.obj
 0001:00026980       ??0Demo3Object@@QAE@PAVDemo3Main@@HH@Z 00427980 f   Demo3Object.obj
 0001:00026ac0       ??1Demo3Object@@UAE@XZ     00427ac0 f   Demo3Object.obj
 0001:00026af0       ??_EDemo3Object@@UAEPAXI@Z 00427af0 f i Demo3Object.obj
 0001:00026af0       ??_GDemo3Object@@UAEPAXI@Z 00427af0 f i Demo3Object.obj
 0001:00026b40       ?DoUpdate@Demo3Object@@UAEXH@Z 00427b40 f   Demo3Object.obj
 0001:00026dd0       ?Draw@Demo3Object@@UAEXXZ  00427dd0 f   Demo3Object.obj
 0001:00026e60       ?GetTileManager@Demo3Main@@QAEAAVDemo3TileManager@@XZ 00427e60 f i Demo3Object.obj
 0001:00026e90       ?GetXDiffForDirection@Demo3Object@@QAEHH@Z 00427e90 f i Demo3Object.obj
 0001:00026f10       ?GetYDiffForDirection@Demo3Object@@QAEHH@Z 00427f10 f i Demo3Object.obj
 0001:00026f90       ??0Demo3ObjectFinished@@QAE@PAVDemo3Main@@HH@Z 00427f90 f   Demo3ObjectFinished.obj
 0001:000270d0       ??1Demo3ObjectFinished@@UAE@XZ 004280d0 f   Demo3ObjectFinished.obj
 0001:00027100       ??_EDemo3ObjectFinished@@UAEPAXI@Z 00428100 f i Demo3ObjectFinished.obj
 0001:00027100       ??_GDemo3ObjectFinished@@UAEPAXI@Z 00428100 f i Demo3ObjectFinished.obj
 0001:00027150       ?DoUpdate@Demo3ObjectFinished@@UAEXH@Z 00428150 f   Demo3ObjectFinished.obj
 0001:00027520       ?Draw@Demo3ObjectFinished@@UAEXXZ 00428520 f   Demo3ObjectFinished.obj
 0001:00027600       ?GetXDiffForDirection@Demo3ObjectFinished@@QAEHH@Z 00428600 f i Demo3ObjectFinished.obj
 0001:00027680       ?GetYDiffForDirection@Demo3ObjectFinished@@QAEHH@Z 00428680 f i Demo3ObjectFinished.obj
 0001:00027700       ??0Demo3TileManager@@QAE@XZ 00428700 f   Demo3TileManager.obj
 0001:00027740       ??1Demo3TileManager@@QAE@XZ 00428740 f   Demo3TileManager.obj
 0001:00027770       ?DrawTileAt@Demo3TileManager@@UBEXPAVBaseEngine@@PAUSDL_Surface@@HHHH@Z 00428770 f   Demo3TileManager.obj
 0001:00027960       ??0Demo4Main@@QAE@XZ       00428960 f   Demo4Main.obj
 0001:00027a00       ??1Demo4Main@@UAE@XZ       00428a00 f   Demo4Main.obj
 0001:00027a90       ??_GDemo4Main@@UAEPAXI@Z   00428a90 f i Demo4Main.obj
 0001:00027a90       ??_EDemo4Main@@UAEPAXI@Z   00428a90 f i Demo4Main.obj
 0001:00027ae0       ?DrawObjects@Demo4Main@@UAEXXZ 00428ae0 f   Demo4Main.obj
 0001:00027b10       ?DrawStrings@Demo4Main@@UAEXXZ 00428b10 f   Demo4Main.obj
 0001:00027c20       ?GameAction@Demo4Main@@UAEXXZ 00428c20 f   Demo4Main.obj
 0001:00027ca0       ?InitialiseObjects@Demo4Main@@UAEHXZ 00428ca0 f   Demo4Main.obj
 0001:00027f20       ?KeyDown@Demo4Main@@UAEXH@Z 00428f20 f   Demo4Main.obj
 0001:00028060       ?MouseDown@Demo4Main@@UAEXHHH@Z 00429060 f   Demo4Main.obj
 0001:00028080       ?SetupBackgroundBuffer@Demo4Main@@UAEXXZ 00429080 f   Demo4Main.obj
 0001:00028320       ?UndrawObjects@Demo4Main@@UAEXXZ 00429320 f   Demo4Main.obj
 0001:00028350       ??0Demo4Object@@QAE@PAVDemo4Main@@HH@Z 00429350 f   Demo4Object.obj
 0001:00028490       ??1Demo4Object@@UAE@XZ     00429490 f   Demo4Object.obj
 0001:000284c0       ??_GDemo4Object@@UAEPAXI@Z 004294c0 f i Demo4Object.obj
 0001:000284c0       ??_EDemo4Object@@UAEPAXI@Z 004294c0 f i Demo4Object.obj
 0001:00028510       ?DoUpdate@Demo4Object@@UAEXH@Z 00429510 f   Demo4Object.obj
 0001:00028ae0       ?Draw@Demo4Object@@UAEXXZ  00429ae0 f   Demo4Object.obj
 0001:00028bd0       ?GetTileManager@Demo4Main@@QAEAAVDemo4TileManager@@XZ 00429bd0 f i Demo4Object.obj
 0001:00028c00       ?GetXDiffForDirection@Demo4Object@@QAEHH@Z 00429c00 f i Demo4Object.obj
 0001:00028c80       ?GetYDiffForDirection@Demo4Object@@QAEHH@Z 00429c80 f i Demo4Object.obj
 0001:00028d00       ??0Demo4TileManager@@QAE@XZ 00429d00 f   Demo4TileManager.obj
 0001:00028d40       ??1Demo4TileManager@@QAE@XZ 00429d40 f   Demo4TileManager.obj
 0001:00028d70       ?DrawTileAt@Demo4TileManager@@UBEXPAVBaseEngine@@PAUSDL_Surface@@HHHH@Z 00429d70 f   Demo4TileManager.obj
 0001:00028f60       ??0BombTileManager@@QAE@XZ 00429f60 f   BombTileManager.obj
 0001:00029010       ??1BombTileManager@@QAE@XZ 0042a010 f   BombTileManager.obj
 0001:00029090       ?DrawTileAt@BombTileManager@@UBEXPAVBaseEngine@@PAUSDL_Surface@@HHHH@Z 0042a090 f   BombTileManager.obj
 0001:00029242       _SDL_cos                   0042a242 f   SDL2:SDL2.dll
 0001:00029248       _SDL_pow                   0042a248 f   SDL2:SDL2.dll
 0001:0002924e       _SDL_sin                   0042a24e f   SDL2:SDL2.dll
 0001:00029254       _SDL_sqrt                  0042a254 f   SDL2:SDL2.dll
 0001:0002925a       _SDL_GetError              0042a25a f   SDL2:SDL2.dll
 0001:00029260       _SDL_CreateRGBSurface      0042a260 f   SDL2:SDL2.dll
 0001:00029266       _SDL_FreeSurface           0042a266 f   SDL2:SDL2.dll
 0001:0002926c       _SDL_LockSurface           0042a26c f   SDL2:SDL2.dll
 0001:00029272       _SDL_UnlockSurface         0042a272 f   SDL2:SDL2.dll
 0001:00029278       _SDL_FillRect              0042a278 f   SDL2:SDL2.dll
 0001:0002927e       _SDL_UpperBlit             0042a27e f   SDL2:SDL2.dll
 0001:00029284       _SDL_CreateWindow          0042a284 f   SDL2:SDL2.dll
 0001:0002928a       _SDL_PollEvent             0042a28a f   SDL2:SDL2.dll
 0001:00029290       _SDL_CreateRenderer        0042a290 f   SDL2:SDL2.dll
 0001:00029296       _SDL_CreateTexture         0042a296 f   SDL2:SDL2.dll
 0001:0002929c       _SDL_UpdateTexture         0042a29c f   SDL2:SDL2.dll
 0001:000292a2       _SDL_RenderCopy            0042a2a2 f   SDL2:SDL2.dll
 0001:000292a8       _SDL_RenderPresent         0042a2a8 f   SDL2:SDL2.dll
 0001:000292ae       _SDL_GetTicks              0042a2ae f   SDL2:SDL2.dll
 0001:000292b4       _SDL_Delay                 0042a2b4 f   SDL2:SDL2.dll
 0001:000292ba       _SDL_Init                  0042a2ba f   SDL2:SDL2.dll
 0001:000292c0       _SDL_Quit                  0042a2c0 f   SDL2:SDL2.dll
 0001:000292c6       _IMG_Load                  0042a2c6 f   SDL2_image:SDL2_image.dll
 0001:000292cc       _TTF_Init                  0042a2cc f   SDL2_ttf:SDL2_ttf.dll
 0001:000292d2       _TTF_RenderText_Solid      0042a2d2 f   SDL2_ttf:SDL2_ttf.dll
 0001:000292d8       _TTF_Quit                  0042a2d8 f   SDL2_ttf:SDL2_ttf.dll
 0001:000292de       _TTF_OpenFont              0042a2de f   SDL2_ttf:SDL2_ttf.dll
 0001:000292e4       _TTF_CloseFont             0042a2e4 f   SDL2_ttf:SDL2_ttf.dll
 0001:000292ea       ?_Xbad_alloc@std@@YAXXZ    0042a2ea f   msvcprt:MSVCP120.dll
 0001:000292f0       ?_Xlength_error@std@@YAXPBD@Z 0042a2f0 f   msvcprt:MSVCP120.dll
 0001:000292f6       ?_Xout_of_range@std@@YAXPBD@Z 0042a2f6 f   msvcprt:MSVCP120.dll
 0001:000292fc       ??0id@locale@std@@QAE@I@Z  0042a2fc f   msvcprt:MSVCP120.dll
 0001:00029302       ?_Syserror_map@std@@YAPBDH@Z 0042a302 f   msvcprt:MSVCP120.dll
 0001:00029308       ?_Winerror_map@std@@YAPBDH@Z 0042a308 f   msvcprt:MSVCP120.dll
 0001:0002930e       ??0_Lockit@std@@QAE@H@Z    0042a30e f   msvcprt:MSVCP120.dll
 0001:00029314       ??1_Lockit@std@@QAE@XZ     0042a314 f   msvcprt:MSVCP120.dll
 0001:0002931a       ?uncaught_exception@std@@YA_NXZ 0042a31a f   msvcprt:MSVCP120.dll
 0001:00029320       ??_U@YAPAXI@Z              0042a320 f   msvcprt:newaop_s.obj
 0001:0002932a       ?_Swap_all@_Container_base0@std@@QAEXAAU12@@Z 0042a32a f   msvcprt:MSVCP120.dll
 0001:00029330       ?_Xinvalid_argument@std@@YAXPBD@Z 0042a330 f   msvcprt:MSVCP120.dll
 0001:00029336       ??0_Fac_node@std@@QAE@PAU01@PAV_Facet_base@1@@Z 0042a336 f i msvcprt:locale0_implib.obj
 0001:0002934a       ??1_Fac_node@std@@QAE@XZ   0042a34a f i msvcprt:locale0_implib.obj
 0001:0002935f       ??1_Fac_tidy_reg_t@std@@QAE@XZ 0042a35f f i msvcprt:locale0_implib.obj
 0001:00029383       ??_G_Fac_node@std@@QAEPAXI@Z 0042a383 f i msvcprt:locale0_implib.obj
 0001:000293a2       ?_Facet_Register@std@@YAXPAV_Facet_base@1@@Z 0042a3a2 f   msvcprt:locale0_implib.obj
 0001:000293ca       ??Bid@locale@std@@QAEIXZ   0042a3ca f   msvcprt:MSVCP120.dll
 0001:000293d0       ?_Getgloballocale@locale@std@@CAPAV_Locimp@12@XZ 0042a3d0 f   msvcprt:MSVCP120.dll
 0001:000293d6       ?always_noconv@codecvt_base@std@@QBE_NXZ 0042a3d6 f   msvcprt:MSVCP120.dll
 0001:000293dc       ?in@?$codecvt@DDH@std@@QBEHAAHPBD1AAPBDPAD3AAPAD@Z 0042a3dc f   msvcprt:MSVCP120.dll
 0001:000293e2       ?out@?$codecvt@DDH@std@@QBEHAAHPBD1AAPBDPAD3AAPAD@Z 0042a3e2 f   msvcprt:MSVCP120.dll
 0001:000293e8       ?unshift@?$codecvt@DDH@std@@QBEHAAHPAD1AAPAD@Z 0042a3e8 f   msvcprt:MSVCP120.dll
 0001:000293ee       ?_Getcat@?$codecvt@DDH@std@@SAIPAPBVfacet@locale@2@PBV42@@Z 0042a3ee f   msvcprt:MSVCP120.dll
 0001:000293f4       ??Bios_base@std@@QBE_NXZ   0042a3f4 f   msvcprt:MSVCP120.dll
 0001:000293fa       ?good@ios_base@std@@QBE_NXZ 0042a3fa f   msvcprt:MSVCP120.dll
 0001:00029400       ?flags@ios_base@std@@QBEHXZ 0042a400 f   msvcprt:MSVCP120.dll
 0001:00029406       ?width@ios_base@std@@QBE_JXZ 0042a406 f   msvcprt:MSVCP120.dll
 0001:0002940c       ?width@ios_base@std@@QAE_J_J@Z 0042a40c f   msvcprt:MSVCP120.dll
 0001:00029412       ??0?$basic_streambuf@DU?$char_traits@D@std@@@std@@IAE@XZ 0042a412 f   msvcprt:MSVCP120.dll
 0001:00029418       ??1?$basic_streambuf@DU?$char_traits@D@std@@@std@@UAE@XZ 0042a418 f   msvcprt:MSVCP120.dll
 0001:0002941e       ?getloc@?$basic_streambuf@DU?$char_traits@D@std@@@std@@QBE?AVlocale@2@XZ 0042a41e f   msvcprt:MSVCP120.dll
 0001:00029424       ?sbumpc@?$basic_streambuf@DU?$char_traits@D@std@@@std@@QAEHXZ 0042a424 f   msvcprt:MSVCP120.dll
 0001:0002942a       ?sgetc@?$basic_streambuf@DU?$char_traits@D@std@@@std@@QAEHXZ 0042a42a f   msvcprt:MSVCP120.dll
 0001:00029430       ?snextc@?$basic_streambuf@DU?$char_traits@D@std@@@std@@QAEHXZ 0042a430 f   msvcprt:MSVCP120.dll
 0001:00029436       ?sputc@?$basic_streambuf@DU?$char_traits@D@std@@@std@@QAEHD@Z 0042a436 f   msvcprt:MSVCP120.dll
 0001:0002943c       ?sputn@?$basic_streambuf@DU?$char_traits@D@std@@@std@@QAE_JPBD_J@Z 0042a43c f   msvcprt:MSVCP120.dll
 0001:00029442       ?eback@?$basic_streambuf@DU?$char_traits@D@std@@@std@@IBEPADXZ 0042a442 f   msvcprt:MSVCP120.dll
 0001:00029448       ?gptr@?$basic_streambuf@DU?$char_traits@D@std@@@std@@IBEPADXZ 0042a448 f   msvcprt:MSVCP120.dll
 0001:0002944e       ?pptr@?$basic_streambuf@DU?$char_traits@D@std@@@std@@IBEPADXZ 0042a44e f   msvcprt:MSVCP120.dll
 0001:00029454       ?egptr@?$basic_streambuf@DU?$char_traits@D@std@@@std@@IBEPADXZ 0042a454 f   msvcprt:MSVCP120.dll
 0001:0002945a       ?setg@?$basic_streambuf@DU?$char_traits@D@std@@@std@@IAEXPAD00@Z 0042a45a f   msvcprt:MSVCP120.dll
 0001:00029460       ?epptr@?$basic_streambuf@DU?$char_traits@D@std@@@std@@IBEPADXZ 0042a460 f   msvcprt:MSVCP120.dll
 0001:00029466       ?_Gndec@?$basic_streambuf@DU?$char_traits@D@std@@@std@@IAEPADXZ 0042a466 f   msvcprt:MSVCP120.dll
 0001:0002946c       ?_Gninc@?$basic_streambuf@DU?$char_traits@D@std@@@std@@IAEPADXZ 0042a46c f   msvcprt:MSVCP120.dll
 0001:00029472       ?_Pninc@?$basic_streambuf@DU?$char_traits@D@std@@@std@@IAEPADXZ 0042a472 f   msvcprt:MSVCP120.dll
 0001:00029478       ?_Init@?$basic_streambuf@DU?$char_traits@D@std@@@std@@IAEXXZ 0042a478 f   msvcprt:MSVCP120.dll
 0001:0002947e       ?_Init@?$basic_streambuf@DU?$char_traits@D@std@@@std@@IAEXPAPAD0PAH001@Z 0042a47e f   msvcprt:MSVCP120.dll
 0001:00029484       ??1?$basic_ios@DU?$char_traits@D@std@@@std@@UAE@XZ 0042a484 f   msvcprt:MSVCP120.dll
 0001:0002948a       ?clear@?$basic_ios@DU?$char_traits@D@std@@@std@@QAEXH_N@Z 0042a48a f   msvcprt:MSVCP120.dll
 0001:00029490       ?setstate@?$basic_ios@DU?$char_traits@D@std@@@std@@QAEXH_N@Z 0042a490 f   msvcprt:MSVCP120.dll
 0001:00029496       ?tie@?$basic_ios@DU?$char_traits@D@std@@@std@@QBEPAV?$basic_ostream@DU?$char_traits@D@std@@@2@XZ 0042a496 f   msvcprt:MSVCP120.dll
 0001:0002949c       ?rdbuf@?$basic_ios@DU?$char_traits@D@std@@@std@@QBEPAV?$basic_streambuf@DU?$char_traits@D@std@@@2@XZ 0042a49c f   msvcprt:MSVCP120.dll
 0001:000294a2       ?fill@?$basic_ios@DU?$char_traits@D@std@@@std@@QBEDXZ 0042a4a2 f   msvcprt:MSVCP120.dll
 0001:000294a8       ?widen@?$basic_ios@DU?$char_traits@D@std@@@std@@QBEDD@Z 0042a4a8 f   msvcprt:MSVCP120.dll
 0001:000294ae       ??0?$basic_ios@DU?$char_traits@D@std@@@std@@IAE@XZ 0042a4ae f   msvcprt:MSVCP120.dll
 0001:000294b4       ??0?$basic_ostream@DU?$char_traits@D@std@@@std@@QAE@PAV?$basic_streambuf@DU?$char_traits@D@std@@@1@_N@Z 0042a4b4 f   msvcprt:MSVCP120.dll
 0001:000294ba       ??1?$basic_ostream@DU?$char_traits@D@std@@@std@@UAE@XZ 0042a4ba f   msvcprt:MSVCP120.dll
 0001:000294c0       ?_Osfx@?$basic_ostream@DU?$char_traits@D@std@@@std@@QAEXXZ 0042a4c0 f   msvcprt:MSVCP120.dll
 0001:000294c6       ??6?$basic_ostream@DU?$char_traits@D@std@@@std@@QAEAAV01@P6AAAV01@AAV01@@Z@Z 0042a4c6 f   msvcprt:MSVCP120.dll
 0001:000294cc       ??6?$basic_ostream@DU?$char_traits@D@std@@@std@@QAEAAV01@H@Z 0042a4cc f   msvcprt:MSVCP120.dll
 0001:000294d2       ?put@?$basic_ostream@DU?$char_traits@D@std@@@std@@QAEAAV12@D@Z 0042a4d2 f   msvcprt:MSVCP120.dll
 0001:000294d8       ?flush@?$basic_ostream@DU?$char_traits@D@std@@@std@@QAEAAV12@XZ 0042a4d8 f   msvcprt:MSVCP120.dll
 0001:000294de       ??0?$basic_istream@DU?$char_traits@D@std@@@std@@QAE@PAV?$basic_streambuf@DU?$char_traits@D@std@@@1@_N@Z 0042a4de f   msvcprt:MSVCP120.dll
 0001:000294e4       ??1?$basic_istream@DU?$char_traits@D@std@@@std@@UAE@XZ 0042a4e4 f   msvcprt:MSVCP120.dll
 0001:000294ea       ?_Ipfx@?$basic_istream@DU?$char_traits@D@std@@@std@@QAE_N_N@Z 0042a4ea f   msvcprt:MSVCP120.dll
 0001:000294f0       ?_Fiopen@std@@YAPAU_iobuf@@PBDHH@Z 0042a4f0 f   msvcprt:MSVCP120.dll
 0001:000294f6       ?showmanyc@?$basic_streambuf@DU?$char_traits@D@std@@@std@@MAE_JXZ 0042a4f6 f   msvcprt:MSVCP120.dll
 0001:000294fc       ?xsgetn@?$basic_streambuf@DU?$char_traits@D@std@@@std@@MAE_JPAD_J@Z 0042a4fc f   msvcprt:MSVCP120.dll
 0001:00029502       ?xsputn@?$basic_streambuf@DU?$char_traits@D@std@@@std@@MAE_JPBD_J@Z 0042a502 f   msvcprt:MSVCP120.dll
 0001:00029508       ?_Orphan_all@_Container_base0@std@@QAEXXZ 0042a508 f   msvcprt:MSVCP120.dll
 0001:00029612       _NtCurrentTeb              0042a612 f i MSVCRT:crtexe.obj
 0001:000297c4       _mainCRTStartup            0042a7c4 f   MSVCRT:crtexe.obj
 0001:000297ce       __purecall                 0042a7ce f   MSVCRT:MSVCR120.dll
 0001:000297d4       ??2@YAPAXI@Z               0042a7d4 f   MSVCRT:MSVCR120.dll
 0001:000297da       ??3@YAXPAX@Z               0042a7da f   MSVCRT:MSVCR120.dll
 0001:000297e0       ___atonexitinit            0042a7e0 f   MSVCRT:atonexit.obj
 0001:0002981c       __onexit                   0042a81c f   MSVCRT:atonexit.obj
 0001:000298c5       _atexit                    0042a8c5 f   MSVCRT:atonexit.obj
 0001:000298da       _memcpy                    0042a8da f   MSVCRT:MSVCR120.dll
 0001:000298e0       _strlen                    0042a8e0 f   MSVCRT:MSVCR120.dll
 0001:000298e6       _memmove                   0042a8e6 f   MSVCRT:MSVCR120.dll
 0001:000298ec       __hypot                    0042a8ec f   MSVCRT:MSVCR120.dll
 0001:000298f2       ??_V@YAXPAX@Z              0042a8f2 f   MSVCRT:MSVCR120.dll
 0001:000298f8       @__security_check_cookie@4 0042a8f8 f   MSVCRT:secchk.obj
 0001:00029908       __CxxThrowException@8      0042a908 f   MSVCRT:MSVCR120.dll
 0001:0002990e       ___CxxFrameHandler3        0042a90e f   MSVCRT:MSVCR120.dll
 0001:00029914       ___RTDynamicCast           0042a914 f   MSVCRT:MSVCR120.dll
 0001:0002991a       ??0type_info@@AAE@ABV0@@Z  0042a91a f   MSVCRT:ti_inst.obj
 0001:00029925       ??4type_info@@AAEAAV0@ABV0@@Z 0042a925 f   MSVCRT:ti_inst.obj
 0001:0002992a       ??_Etype_info@@UAEPAXI@Z   0042a92a f i MSVCRT:ti_inst.obj
 0001:00029980       _printf                    0042a980 f   MSVCRT:MSVCR120.dll
 0001:00029986       _rand                      0042a986 f   MSVCRT:MSVCR120.dll
 0001:0002998c       __wassert                  0042a98c f   MSVCRT:MSVCR120.dll
 0001:00029992       ??_L@YGXPAXIHP6EX0@Z1@Z    0042a992 f   MSVCRT:ehvecctr.obj
 0001:000299f4       ??_M@YGXPAXIHP6EX0@Z@Z     0042a9f4 f   MSVCRT:ehvecdtr.obj
 0001:00029a7c       ?__ArrayUnwind@@YGXPAXIHP6EX0@Z@Z 0042aa7c f   MSVCRT:ehvecdtr.obj
 0001:00029ada       __errno                    0042aada f   MSVCRT:MSVCR120.dll
 0001:00029ae0       _fclose                    0042aae0 f   MSVCRT:MSVCR120.dll
 0001:00029ae6       _fflush                    0042aae6 f   MSVCRT:MSVCR120.dll
 0001:00029aec       _fgetc                     0042aaec f   MSVCRT:MSVCR120.dll
 0001:00029af2       _fgetpos                   0042aaf2 f   MSVCRT:MSVCR120.dll
 0001:00029af8       _fputc                     0042aaf8 f   MSVCRT:MSVCR120.dll
 0001:00029afe       _fsetpos                   0042aafe f   MSVCRT:MSVCR120.dll
 0001:00029b04       __fseeki64                 0042ab04 f   MSVCRT:MSVCR120.dll
 0001:00029b0a       _fwrite                    0042ab0a f   MSVCRT:MSVCR120.dll
 0001:00029b10       _setvbuf                   0042ab10 f   MSVCRT:MSVCR120.dll
 0001:00029b16       _ungetc                    0042ab16 f   MSVCRT:MSVCR120.dll
 0001:00029b1c       _sprintf                   0042ab1c f   MSVCRT:MSVCR120.dll
 0001:00029b22       __lock_file                0042ab22 f   MSVCRT:MSVCR120.dll
 0001:00029b28       __unlock_file              0042ab28 f   MSVCRT:MSVCR120.dll
 0001:00029b2e       _memchr                    0042ab2e f   MSVCRT:MSVCR120.dll
 0001:00029b34       _memcmp                    0042ab34 f   MSVCRT:MSVCR120.dll
 0001:00029b3a       _memcpy_s                  0042ab3a f   MSVCRT:MSVCR120.dll
 0001:00029b40       _memset                    0042ab40 f   MSVCRT:MSVCR120.dll
 0001:00029b46       _strtol                    0042ab46 f   MSVCRT:MSVCR120.dll
 0001:00029b4c       _cos                       0042ab4c f   MSVCRT:MSVCR120.dll
 0001:00029b52       _sin                       0042ab52 f   MSVCRT:MSVCR120.dll
 0001:00029b58       ?terminate@@YAXXZ          0042ab58 f   MSVCRT:MSVCR120.dll
 0001:00029b5e       ??0bad_cast@std@@QAE@PBD@Z 0042ab5e f   MSVCRT:MSVCR120.dll
 0001:00029b64       ??0bad_cast@std@@QAE@ABV01@@Z 0042ab64 f   MSVCRT:MSVCR120.dll
 0001:00029b6a       ??0exception@std@@QAE@ABV01@@Z 0042ab6a f   MSVCRT:MSVCR120.dll
 0001:00029b70       ??1bad_cast@std@@UAE@XZ    0042ab70 f   MSVCRT:MSVCR120.dll
 0001:00029b76       _abs                       0042ab76 f   MSVCRT:MSVCR120.dll
 0001:00029b7c       _srand                     0042ab7c f   MSVCRT:MSVCR120.dll
 0001:00029b82       __time64                   0042ab82 f   MSVCRT:MSVCR120.dll
 0001:00029b88       ___iob_func                0042ab88 f   MSVCRT:MSVCR120.dll
 0001:00029b8e       _fprintf                   0042ab8e f   MSVCRT:MSVCR120.dll
 0001:00029b94       _atan                      0042ab94 f   MSVCRT:MSVCR120.dll
 0001:00029b9a       _strcpy                    0042ab9a f   MSVCRT:MSVCR120.dll
 0001:00029ba0       _strcmp                    0042aba0 f   MSVCRT:MSVCR120.dll
 0001:00029ba6       ?__CxxUnhandledExceptionFilter@@YGJPAU_EXCEPTION_POINTERS@@@Z 0042aba6 f   MSVCRT:unhandld.obj
 0001:00029be7       ___CxxSetUnhandledExceptionFilter 0042abe7 f   MSVCRT:unhandld.obj
 0001:00029bf6       __XcptFilter               0042abf6 f   MSVCRT:MSVCR120.dll
 0001:00029bfc       __amsg_exit                0042abfc f   MSVCRT:MSVCR120.dll
 0001:00029c02       __setargv                  0042ac02 f   MSVCRT:dllargv.obj
 0001:00029c06       ___getmainargs             0042ac06 f   MSVCRT:MSVCR120.dll
 0001:00029c0c       ___set_app_type            0042ac0c f   MSVCRT:MSVCR120.dll
 0001:00029c20       __FindPESection            0042ac20 f   MSVCRT:pesect.obj
 0001:00029c70       __IsNonwritableInCurrentImage 0042ac70 f   MSVCRT:pesect.obj
 0001:00029d30       __ValidateImageBase        0042ad30 f   MSVCRT:pesect.obj
 0001:00029d62       _exit                      0042ad62 f   MSVCRT:MSVCR120.dll
 0001:00029d68       __exit                     0042ad68 f   MSVCRT:MSVCR120.dll
 0001:00029d6e       __cexit                    0042ad6e f   MSVCRT:MSVCR120.dll
 0001:00029d74       ___security_init_cookie    0042ad74 f   MSVCRT:gs_support.obj
 0001:00029e10       __matherr                  0042ae10 f   MSVCRT:merr.obj
 0001:00029e13       __RTC_Initialize           0042ae13 f   MSVCRT:initsect.obj
 0001:00029e33       __RTC_Terminate            0042ae33 f   MSVCRT:initsect.obj
 0001:00029e54       __configthreadlocale       0042ae54 f   MSVCRT:MSVCR120.dll
 0001:00029e5a       __invoke_watson_if_error   0042ae5a f i MSVCRT:fp8.obj
 0001:00029e7a       __setdefaultprecision      0042ae7a f   MSVCRT:fp8.obj
 0001:00029ea2       ___setusermatherr          0042aea2 f   MSVCRT:MSVCR120.dll
 0001:00029ea8       __initterm_e               0042aea8 f   MSVCRT:MSVCR120.dll
 0001:00029eae       __initterm                 0042aeae f   MSVCRT:MSVCR120.dll
 0001:00029ec0       __SEH_prolog4              0042aec0 f   MSVCRT:sehprolg4.obj
 0001:00029f05       __SEH_epilog4              0042af05 f   MSVCRT:sehprolg4.obj
 0001:00029f19       __except_handler4          0042af19 f   MSVCRT:chandler4gs.obj
 0001:00029f3c       __lock                     0042af3c f   MSVCRT:MSVCR120.dll
 0001:00029f42       __unlock                   0042af42 f   MSVCRT:MSVCR120.dll
 0001:00029f48       __calloc_crt               0042af48 f   MSVCRT:MSVCR120.dll
 0001:00029f4e       ___dllonexit               0042af4e f   MSVCRT:MSVCR120.dll
 0001:00029f54       ___raise_securityfailure   0042af54 f   MSVCRT:gs_report.obj
 0001:00029f91       ___report_gsfailure        0042af91 f   MSVCRT:gs_report.obj
 0001:0002a08c       ___report_rangecheckfailure 0042b08c f   MSVCRT:gs_report.obj
 0001:0002a098       ___report_securityfailure  0042b098 f   MSVCRT:gs_report.obj
 0001:0002a168       ___report_securityfailureEx 0042b168 f   MSVCRT:gs_report.obj
 0001:0002a27e       ??1type_info@@UAE@XZ       0042b27e f   MSVCRT:MSVCR120.dll
 0001:0002a284       ___crtSetUnhandledExceptionFilter 0042b284 f   MSVCRT:MSVCR120.dll
 0001:0002a28a       __invoke_watson            0042b28a f   MSVCRT:MSVCR120.dll
 0001:0002a290       __controlfp_s              0042b290 f   MSVCRT:MSVCR120.dll
 0001:0002a296       __except_handler4_common   0042b296 f   MSVCRT:MSVCR120.dll
 0001:0002a29c       __crt_debugger_hook        0042b29c f   MSVCRT:MSVCR120.dll
 0001:0002a2a2       ___crtUnhandledException   0042b2a2 f   MSVCRT:MSVCR120.dll
 0001:0002a2a8       ___crtTerminateProcess     0042b2a8 f   MSVCRT:MSVCR120.dll
 0001:0002a2ae       _EncodePointer@4           0042b2ae f   kernel32:KERNEL32.dll
 0001:0002a2b4       _DecodePointer@4           0042b2b4 f   kernel32:KERNEL32.dll
 0001:0002a2ba       _QueryPerformanceCounter@4 0042b2ba f   kernel32:KERNEL32.dll
 0001:0002a2c0       _GetCurrentProcessId@0     0042b2c0 f   kernel32:KERNEL32.dll
 0001:0002a2c6       _GetCurrentThreadId@0      0042b2c6 f   kernel32:KERNEL32.dll
 0001:0002a2cc       _GetSystemTimeAsFileTime@4 0042b2cc f   kernel32:KERNEL32.dll
 0001:0002a2d2       _IsDebuggerPresent@0       0042b2d2 f   kernel32:KERNEL32.dll
 0001:0002a2d8       _IsProcessorFeaturePresent@4 0042b2d8 f   kernel32:KERNEL32.dll
 0001:0002a2de       _GetCommandLineW@0         0042b2de f   kernel32:KERNEL32.dll
 0001:0002a2e4       _SDL_SetMainReady          0042b2e4 f   SDL2:SDL2.dll
 0001:0002a2ea       _SDL_free                  0042b2ea f   SDL2:SDL2.dll
 0001:0002a2f0       _SDL_malloc                0042b2f0 f   SDL2:SDL2.dll
 0001:0002a2f6       _SDL_iconv_string          0042b2f6 f   SDL2:SDL2.dll
 0001:0002a2fc       _SDL_wcslen                0042b2fc f   SDL2:SDL2.dll
 0001:0002a302       _SDL_isspace               0042b302 f   SDL2:SDL2.dll
 0002:00000000       ___xc_a                    00431000     MSVCRT:cinitexe.obj
 0002:000006d8       ___xc_z                    004316d8     MSVCRT:cinitexe.obj
 0002:000007dc       ___xi_a                    004317dc     MSVCRT:cinitexe.obj
 0002:00000bec       ___xi_z                    00431bec     MSVCRT:cinitexe.obj
 0002:00000d2c       ??_7CatchableObject@@6B@   00431d2c     CatchableObject.obj
 0002:00000d48       ??_7error_category@std@@6B@ 00431d48     CatchableObject.obj
 0002:00000d6c       ??_7_Generic_error_category@std@@6B@ 00431d6c     CatchableObject.obj
 0002:00000d8c       ??_C@_07DCLBNMLN@generic?$AA@ 00431d8c     CatchableObject.obj
 0002:00000d98       ??_C@_0O@BFJCFAAK@unknown?5error?$AA@ 00431d98     CatchableObject.obj
 0002:00000dac       ??_7_Iostream_error_category@std@@6B@ 00431dac     CatchableObject.obj
 0002:00000dcc       ??_C@_08LLGCOLLL@iostream?$AA@ 00431dcc     CatchableObject.obj
 0002:00000dd8       ??_C@_0BG@PADBLCHM@iostream?5stream?5error?$AA@ 00431dd8     CatchableObject.obj
 0002:00000df8       ??_7_System_error_category@std@@6B@ 00431df8     CatchableObject.obj
 0002:00000e18       ??_C@_06FHFOAHML@system?$AA@ 00431e18     CatchableObject.obj
 0002:00000e20       ??_C@_0BA@JFNIOLAK@string?5too?5long?$AA@ 00431e20     CatchableObject.obj
 0002:00000e34       ??_C@_0BI@CFPLBAOH@invalid?5string?5position?$AA@ 00431e34     CatchableObject.obj
 0002:00000e50       ??_C@_1DO@BOFHKNCO@?$AAz?$AA?3?$AA?2?$AAc?$AAp?$AAp?$AA_?$AAc?$AAw?$AA2?$AA0?$AA1?$AA6?$AA?2?$AAs?$AAr?$AAc?$AA?2?$AAb?$AAa?$AAs?$AAe?$AAe?$AAn?$AAg?$AAi?$AAn?$AAe?$AA?4?$AAh?$AA?$AA@ 00431e50     DemoAMain.obj
 0002:00000e9c       ??_C@_1BA@GEGIDABA@?$AAi?$AAX?$AA?5?$AA?$DO?$AA?$DN?$AA?5?$AA0?$AA?$AA@ 00431e9c     DemoAMain.obj
 0002:00000eb0       ??_C@_1CI@KAFMFBDA@?$AAi?$AAX?$AA?5?$AA?$DM?$AA?5?$AAm?$AA_?$AAi?$AAS?$AAc?$AAr?$AAe?$AAe?$AAn?$AAW?$AAi?$AAd?$AAt?$AAh?$AA?$AA@ 00431eb0     DemoAMain.obj
 0002:00000ee0       ??_C@_1BA@PJGHNBGG@?$AAi?$AAY?$AA?5?$AA?$DO?$AA?$DN?$AA?5?$AA0?$AA?$AA@ 00431ee0     DemoAMain.obj
 0002:00000ef4       ??_C@_1CK@LKNFCKCC@?$AAi?$AAY?$AA?5?$AA?$DM?$AA?5?$AAm?$AA_?$AAi?$AAS?$AAc?$AAr?$AAe?$AAe?$AAn?$AAH?$AAe?$AAi?$AAg?$AAh?$AAt?$AA?$AA@ 00431ef4     DemoAMain.obj
 0002:00000f28       ??_C@_1EI@BAHIIBCJ@?$AAi?$AAX?$AA?5?$AA?$DM?$AA?5?$AAG?$AAe?$AAt?$AAI?$AAn?$AAt?$AAs?$AAP?$AAe?$AAr?$AAS?$AAc?$AAr?$AAe?$AAe?$AAn?$AAR?$AAo?$AAw?$AA?$CI?$AA?5?$AAp?$AAT?$AAa?$AAr?$AAg?$AAe@ 00431f28     DemoAMain.obj
 0002:00000f84       ??_7DemoAMain@@6B@         00431f84     DemoAMain.obj
 0002:00000ff0       ??_C@_06IPGPIAII@?$CFd?5?$CFd?6?$AA@ 00431ff0     DemoAMain.obj
 0002:00000ffc       ??_7DemoBObject@@6B@       00431ffc     DemoBObject.obj
 0002:00001018       ??_7DiamondObject@@6B@     00432018     DiamondObject.obj
 0002:00001030       ??_C@_0BJ@CAGPPKHJ@?4?1psyml5_src?1diamond?4png?$AA@ 00432030     DiamondObject.obj
 0002:00001050       ??_C@_04LOCGMNIB@$100?$AA@ 00432050     DiamondObject.obj
 0002:00001058       ??_C@_0O@CEICPAIL@Pig?5is?5Here?$CB?6?$AA@ 00432058     DiamondObject.obj
 0002:00001068       ??_C@_0L@JBNEMOIO@Pig?5Gone?$CB?6?$AA@ 00432068     DiamondObject.obj
 0002:00001078       ??_C@_03PMGGPEJJ@?$CFd?6?$AA@ 00432078     DiamondObject.obj
 0002:0000107c       ??_C@_0BI@MIOALMIA@One?5diamond?5is?5gone?5?3?$DM?6?$AA@ 0043207c     DiamondObject.obj
 0002:00001098       ?goals@GoldenManEngine@@2QBHB 00432098     GoldenManEngine.obj
 0002:000010c8       ?npos@?$basic_string@DU?$char_traits@D@std@@V?$allocator@D@2@@std@@2IB 004320c8     GoldenManEngine.obj
 0002:000010cc       ??_C@_00CNPNBAHC@?$AA@     004320cc     GoldenManEngine.obj
 0002:000010d0       ??_C@_0BG@HGEDEDEC@invalid?5stoi?5argument?$AA@ 004320d0     GoldenManEngine.obj
 0002:000010ec       ??_C@_0BL@MFFNMGGC@stoi?5argument?5out?5of?5range?$AA@ 004320ec     GoldenManEngine.obj
 0002:00001110       ??_7GoldenManEngine@@6B@   00432110     GoldenManEngine.obj
 0002:0000117c       ??_C@_0BI@GADMFKFA@?4?1psyml5_src?1ini_bk?4jpg?$AA@ 0043217c     GoldenManEngine.obj
 0002:00001198       ??_C@_0BH@GODHLAKG@?4?1psyml5_src?1start?4jpg?$AA@ 00432198     GoldenManEngine.obj
 0002:000011b4       ??_C@_0BI@OCNAPNNK@?4?1psyml5_src?1scores?4jpg?$AA@ 004321b4     GoldenManEngine.obj
 0002:000011d0       ??_C@_0BK@FFPBMGBC@?4?1psyml5_src?1score_bk?4jpg?$AA@ 004321d0     GoldenManEngine.obj
 0002:000011f0       ??_C@_0BI@FAFNCCDB@?4?1psyml5_src?1gback1?4png?$AA@ 004321f0     GoldenManEngine.obj
 0002:0000120c       ??_C@_0BI@NGMJFAJP@?4?1psyml5_src?1gback2?4png?$AA@ 0043220c     GoldenManEngine.obj
 0002:00001228       ??_C@_0BI@BNJFIDDK@?4?1psyml5_src?1gback3?4png?$AA@ 00432228     GoldenManEngine.obj
 0002:00001244       ??_C@_0BI@JALDIC@?4?1psyml5_src?1gback4?4png?$AA@ 00432244     GoldenManEngine.obj
 0002:00001260       ??_C@_0BI@MLMMGACH@?4?1psyml5_src?1gback5?4png?$AA@ 00432260     GoldenManEngine.obj
 0002:0000127c       ??_C@_0BI@ENFIBCIJ@?4?1psyml5_src?1gback6?4png?$AA@ 0043227c     GoldenManEngine.obj
 0002:00001298       ??_C@_0BF@EPBKIGFF@?4?1psyml5_src?1man?4png?$AA@ 00432298     GoldenManEngine.obj
 0002:000012b4       ??_C@_0BK@CCMMMNBI@?4?1psyml5_src?1man_goal?4png?$AA@ 004322b4     GoldenManEngine.obj
 0002:000012d4       ??_C@_0BK@FNPPMOBB@?4?1psyml5_src?1intro_bk?4jpg?$AA@ 004322d4     GoldenManEngine.obj
 0002:000012f4       ??_C@_0BA@CEDAAOJH@Enter?5Your?5Name?$AA@ 004322f4     GoldenManEngine.obj
 0002:00001308       ??_C@_08KNDNNBLP@Level?5?$CFd?$AA@ 00432308     GoldenManEngine.obj
 0002:00001314       ??_C@_08IMINJKEJ@Goal?3?5?$CFd?$AA@ 00432314     GoldenManEngine.obj
 0002:00001320       ??_C@_0BF@DIFDMPHK@Press?5space?5to?5start?$AA@ 00432320     GoldenManEngine.obj
 0002:0000133c       ??_C@_0BD@JNPIIDJH@You?5Passed?5all?$CB?5?3?$CJ?$AA@ 0043233c     GoldenManEngine.obj
 0002:00001354       ??_C@_0BF@CHKGBDOF@Score?3?5?$CFd?5?5Level?3?5?$CFd?$AA@ 00432354     GoldenManEngine.obj
 0002:00001370       ??_C@_0N@PHLCPELE@Well?5done?5?$CFs?$AA@ 00432370     GoldenManEngine.obj
 0002:00001380       ??_C@_0M@KIHIPCDI@Press?5space?$AA@ 00432380     GoldenManEngine.obj
 0002:00001390       ??_C@_08CDMPFJPE@Game?5End?$AA@ 00432390     GoldenManEngine.obj
 0002:0000139c       ??_C@_09HFAJNPOO@Score?3?5?$CFd?$AA@ 0043239c     GoldenManEngine.obj
 0002:000013a8       ??_C@_08DPAANGMG@Time?3?5?$CFd?$AA@ 004323a8     GoldenManEngine.obj
 0002:000013b4       ??_C@_09DGDEKFIJ@Level?3?5?$CFd?$AA@ 004323b4     GoldenManEngine.obj
 0002:000013c0       ??_C@_09PAFMKOIH@GAME?5STOP?$AA@ 004323c0     GoldenManEngine.obj
 0002:000013cc       ??_C@_06KFACOCGE@SCORES?$AA@ 004323cc     GoldenManEngine.obj
 0002:000013d4       ??_C@_07EIAOGIOA@Hi?$CB?5?$CFs?6?$AA@ 004323d4     GoldenManEngine.obj
 0002:000013e0       ??_C@_06JFHNPDNO@Reset?6?$AA@ 004323e0     GoldenManEngine.obj
 0002:000013e8       ??_C@_02HAOIJKIC@?$CFc?$AA@ 004323e8     GoldenManEngine.obj
 0002:000013f0       ??_7?$basic_filebuf@DU?$char_traits@D@std@@@std@@6B@ 004323f0     GoldenManEngine.obj
 0002:0000143c       ??_7?$basic_ofstream@DU?$char_traits@D@std@@@std@@6B@ 0043243c     GoldenManEngine.obj
 0002:00001444       ??_8?$basic_ofstream@DU?$char_traits@D@std@@@std@@7B@ 00432444     GoldenManEngine.obj
 0002:00001450       ??_C@_09MFPNNKDL@score?4txt?$AA@ 00432450     GoldenManEngine.obj
 0002:0000145c       ??_C@_04NHHCOCL@?9?5?5?5?$AA@ 0043245c     GoldenManEngine.obj
 0002:00001464       ??_C@_0M@GLGGFDMA@Unknown?3?5?5?5?$AA@ 00432464     GoldenManEngine.obj
 0002:00001470       ??_C@_04NPLHGFLJ@?3?5?5?5?$AA@ 00432470     GoldenManEngine.obj
 0002:00001478       ??_C@_01JLIPDDHJ@?3?$AA@   00432478     GoldenManEngine.obj
 0002:0000147c       ??_C@_01JOAMLHOP@?9?$AA@   0043247c     GoldenManEngine.obj
 0002:00001484       ??_7?$basic_ifstream@DU?$char_traits@D@std@@@std@@6B@ 00432484     GoldenManEngine.obj
 0002:0000148c       ??_8?$basic_ifstream@DU?$char_traits@D@std@@@std@@7B@ 0043248c     GoldenManEngine.obj
 0002:00001498       ??_C@_0BG@GELDKDIP@Can?5not?5open?5the?5file?$AA@ 00432498     GoldenManEngine.obj
 0002:000014b4       ??_C@_0BL@OOJEGKEL@TOP?5Ten?5?$CIName?5Score?5Level?$CJ?$AA@ 004324b4     GoldenManEngine.obj
 0002:000014d4       ??_C@_04DIMAIMCG@?$CFd?3?5?$AA@ 004324d4     GoldenManEngine.obj
 0002:000014dc       ??_C@_08EPJLHIJG@bad?5cast?$AA@ 004324dc     GoldenManEngine.obj
 0002:000014e8       ??_C@_0BB@MOGOBHAF@list?$DMT?$DO?5too?5long?$AA@ 004324e8     GoldenManEngine.obj
 0002:00001500       __real@3ff8000000000000    00432500     GoldenManEngine.obj
 0002:00001510       __real@400921fb54442d18    00432510     GoldenManEngine.obj
 0002:00001520       __real@4059000000000000    00432520     GoldenManEngine.obj
 0002:00001530       __real@4066800000000000    00432530     GoldenManEngine.obj
 0002:00001540       ??_7GoldObject@@6B@        00432540     GoldObject.obj
 0002:00001558       ??_C@_0BG@LADOIIJL@?4?1psyml5_src?1gold?4png?$AA@ 00432558     GoldObject.obj
 0002:00001574       ??_C@_03MANAJAC@$50?$AA@   00432574     GoldObject.obj
 0002:0000157c       ??_7HookObject@@6B@        0043257c     HookObject.obj
 0002:00001594       ??_C@_0BK@CMDMOOEI@?4?1psyml5_src?1rotation?4png?$AA@ 00432594     HookObject.obj
 0002:000015b4       ??_C@_0BE@DOECOFCE@?4?1psyml5_src?1up?4png?$AA@ 004325b4     HookObject.obj
 0002:000015cc       ??_C@_0BG@ENPBFPAM@?4?1psyml5_src?1down?4png?$AA@ 004325cc     HookObject.obj
 0002:000015e8       __real@4000000000000000    004325e8     HookObject.obj
 0002:000015f8       __real@4024000000000000    004325f8     HookObject.obj
 0002:00001604       ??_C@_0CI@ODDNEOI@My?5Demonstration?5Program?5?3?5Size?5@ 00432604     mainfunction.obj
 0002:00001634       ??_C@_0BF@IOBKFBGD@?4?1psyml5_src?1Jim?4ttf?$AA@ 00432634     mainfunction.obj
 0002:00001654       ??_7BaseEngine@@6B@        00432654     BaseEngine.obj
 0002:000016c0       ??_C@_0BI@FBLGJKMC@Unable?5to?5init?5SDL?3?5?$CFs?6?$AA@ 004326c0     BaseEngine.obj
 0002:000016dc       ??_C@_0CM@IHOJMAHM@Draw?5for?5points?5?$CFd?0?5?$CFd?0?5?$CFd?5of?5?$CFd@ 004326dc     BaseEngine.obj
 0002:00001710       ??_C@_0BG@KPFFDCIH@?7Copy?5point?5?$CFd?5to?5?$CFd?6?$AA@ 00432710     BaseEngine.obj
 0002:00001730       ??_C@_0EG@PFCKNAL@Draw?5shortened?5line?5?$CFd?0?$CFd?5to?5?$CFd?0@ 00432730     BaseEngine.obj
 0002:00001784       ??_C@_0CA@MMOGIFNF@invalid?5unordered_map?$DMK?0?5T?$DO?5key?$AA@ 00432784     BaseEngine.obj
 0002:000017ac       ??_C@_0BD@OLBABOEK@vector?$DMT?$DO?5too?5long?$AA@ 004327ac     BaseEngine.obj
 0002:000017c8       __real@0000000000000000    004327c8     BaseEngine.obj
 0002:000017d4       __real@3f800000            004327d4     BaseEngine.obj
 0002:000017d8       __real@3fe0000000000000    004327d8     BaseEngine.obj
 0002:000017e8       __real@3fe0c152382d7365    004327e8     BaseEngine.obj
 0002:000017f8       __real@3ff0000000000000    004327f8     BaseEngine.obj
 0002:00001808       __real@3ff921fb54442d18    00432808     BaseEngine.obj
 0002:00001818       __real@4008000000000000    00432818     BaseEngine.obj
 0002:00001828       __real@400f6a7a2955385e    00432828     BaseEngine.obj
 0002:00001838       __real@4010000000000000    00432838     BaseEngine.obj
 0002:00001848       __real@401921fb54442d18    00432848     BaseEngine.obj
 0002:00001860       __xmm@41f00000000000000000000000000000 00432860     BaseEngine.obj
 0002:00001878       ??_7DisplayableObject@@6B@ 00432878     DisplayableObject.obj
 0002:00001890       ??_C@_0BI@GMOFELCF@Free?5font?3?5?$CFd?5point?5?$CFs?6?$AA@ 00432890     FontManager.obj
 0002:000018ac       ??_C@_0BL@IIGPEFFA@Loading?5font?3?5?$CFd?5point?5?$CFs?6?$AA@ 004328ac     FontManager.obj
 0002:000018cc       ??_C@_0BG@EJGFOME@Font?5loading?5failed?4?6?$AA@ 004328cc     FontManager.obj
 0002:000018e8       __real@3f50624dd2f1a9fc    004328e8     JPGImage.obj
 0002:000018f8       __real@406fe00000000000    004328f8     JPGImage.obj
 0002:00001908       ??_7Psyml5Engine@@6B@      00432908     Psyml5Engine.obj
 0002:00001974       ??_C@_0BF@KICBMNNO@SUCH?5A?5BEAUTIFUL?5DAY?$AA@ 00432974     Psyml5Engine.obj
 0002:00001990       ??_C@_08HMBOHNJM@nose?4png?$AA@ 00432990     Psyml5Engine.obj
 0002:0000199c       ??_C@_0N@KOBBPFJC@BallBeat?3?5?$CFd?$AA@ 0043299c     Psyml5Engine.obj
 0002:000019ac       ??_C@_06LKBCGDFD@Button?$AA@ 004329ac     Psyml5Engine.obj
 0002:000019b8       __real@405e000000000000    004329b8     Psyml5Engine.obj
 0002:000019c8       __real@4064000000000000    004329c8     Psyml5Engine.obj
 0002:000019d8       __real@4069000000000000    004329d8     Psyml5Engine.obj
 0002:000019e8       __real@406b800000000000    004329e8     Psyml5Engine.obj
 0002:000019f8       __real@4071800000000000    004329f8     Psyml5Engine.obj
 0002:00001a08       __real@4077200000000000    00432a08     Psyml5Engine.obj
 0002:00001a18       __real@4078600000000000    00432a18     Psyml5Engine.obj
 0002:00001a28       __real@4079000000000000    00432a28     Psyml5Engine.obj
 0002:00001a38       __real@407a400000000000    00432a38     Psyml5Engine.obj
 0002:00001a48       __real@4089000000000000    00432a48     Psyml5Engine.obj
 0002:00001a58       ??_7Psyml5Object1@@6B@     00432a58     Psyml5Object1.obj
 0002:00001a74       ??_7Psyml5Object2@@6B@     00432a74     Psyml5Object2.obj
 0002:00001a8c       ??_C@_06GLLINEME@?$CFf?0?$CFf?5?$AA@ 00432a8c     Psyml5Object2.obj
 0002:00001a98       __real@4014000000000000    00432a98     Psyml5Object2.obj
 0002:00001aa8       __real@407f300000000000    00432aa8     Psyml5Object2.obj
 0002:00001ab8       __real@407f400000000000    00432ab8     Psyml5Object2.obj
 0002:00001ac8       __real@4084500000000000    00432ac8     Psyml5Object2.obj
 0002:00001ae0       __xmm@80000000000000008000000000000000 00432ae0     Psyml5Object2.obj
 0002:00001af8       ??_7TileManager@@6B@       00432af8     Psyml5TileManager.obj
 0002:00001b0c       ??_7Psyml5TileManager@@6B@ 00432b0c     Psyml5TileManager.obj
 0002:00001b1c       ??_C@_02DPKJAMEF@?$CFd?$AA@ 00432b1c     RunningPig.obj
 0002:00001b24       ??_7RunningPig@@6B@        00432b24     RunningPig.obj
 0002:00001b3c       ??_C@_0BE@EKJAEOJH@?4?1psyml5_src?1ls?4png?$AA@ 00432b3c     RunningPig.obj
 0002:00001b54       ??_C@_0BE@HNHBKJAE@?4?1psyml5_src?1rs?4png?$AA@ 00432b54     RunningPig.obj
 0002:00001b6c       ??_C@_0BE@NBABAMIB@?4?1psyml5_src?1lw?4png?$AA@ 00432b6c     RunningPig.obj
 0002:00001b84       ??_C@_0BE@OGOAOLBC@?4?1psyml5_src?1rw?4png?$AA@ 00432b84     RunningPig.obj
 0002:00001b9c       ??_C@_0BE@EJEGEMAM@?4?1psyml5_src?1lc?4png?$AA@ 00432b9c     RunningPig.obj
 0002:00001bb4       ??_C@_0BE@HOKHKLJP@?4?1psyml5_src?1rc?4png?$AA@ 00432bb4     RunningPig.obj
 0002:00001bcc       ??_C@_0BG@OMEOIGIB@?4?1psyml5_src?1boom?4png?$AA@ 00432bcc     RunningPig.obj
 0002:00001be8       ??_C@_03MOPMDCCC@$?$CFd?$AA@ 00432be8     RunningPig.obj
 0002:00001bf0       ??_7RunningPigDiamond@@6B@ 00432bf0     RunningPigDiamond.obj
 0002:00001c08       ??_C@_02NCIKJMKA@$2?$AA@   00432c08     RunningPigDiamond.obj
 0002:00001c10       ??_7SimpleShape@@6B@       00432c10     SimpleDemo.obj
 0002:00001c28       ??_C@_0BB@HGEFLDGP@Position?5?$CFf?0?5?$CFf?6?$AA@ 00432c28     SimpleDemo.obj
 0002:00001c3c       ??_C@_0BE@IKIDCBN@Changing?5random?5?$CF6d?$AA@ 00432c3c     SimpleDemo.obj
 0002:00001c54       ??_C@_0BH@GHJDDINE@Underneath?5the?5objects?$AA@ 00432c54     SimpleDemo.obj
 0002:00001c70       ??_C@_08DMOOLEPO@Time?5?$CF6d?$AA@ 00432c70     SimpleDemo.obj
 0002:00001c7c       ??_C@_0BG@CCBEDEBD@On?5top?5of?5the?5objects?$AA@ 00432c7c     SimpleDemo.obj
 0002:00001c98       __real@3f747ae147ae147b    00432c98     SimpleDemo.obj
 0002:00001ca8       __real@4004000000000000    00432ca8     SimpleDemo.obj
 0002:00001cb8       ??_7StableObject@@6B@      00432cb8     StableObject.obj
 0002:00001cd4       ??_7StoneObject@@6B@       00432cd4     StoneObject.obj
 0002:00001cec       ??_C@_0BH@DKFFLMJB@?4?1psyml5_src?1stone?4png?$AA@ 00432cec     StoneObject.obj
 0002:00001d08       ??_C@_03LAEKBNO@$10?$AA@   00432d08     StoneObject.obj
 0002:00001d10       ??_7BouncingBall@@6B@      00432d10     BouncingBall.obj
 0002:00001d2c       ??_7BouncingBall1@@6B@     00432d2c     BouncingBall.obj
 0002:00001d48       ??_7BouncingBall2@@6B@     00432d48     BouncingBall.obj
 0002:00001d60       __real@3f847ae147ae147b    00432d60     BouncingBall.obj
 0002:00001d6c       ??_C@_08OOIKCPDP@demo?4png?$AA@ 00432d6c     BouncingBallMain.obj
 0002:00001d78       ??_C@_01FHEEJDEE@A?$AA@    00432d78     BouncingBallMain.obj
 0002:00001d7c       ??_C@_01HMGJMAIH@B?$AA@    00432d7c     BouncingBallMain.obj
 0002:00001d80       ??_C@_01GFHCPBMG@C?$AA@    00432d80     BouncingBallMain.obj
 0002:00001d84       ??_C@_0N@HPPCHOIG@Example?5text?$AA@ 00432d84     BouncingBallMain.obj
 0002:00001d98       __real@3fe999999999999a    00432d98     BouncingBallMain.obj
 0002:00001da8       __real@3ff199999999999a    00432da8     BouncingBallMain.obj
 0002:00001db8       __real@3ff3333333333333    00432db8     BouncingBallMain.obj
 0002:00001dc8       __real@4049000000000000    00432dc8     BouncingBallMain.obj
 0002:00001dd8       __real@4062c00000000000    00432dd8     BouncingBallMain.obj
 0002:00001de8       __real@406f400000000000    00432de8     BouncingBallMain.obj
 0002:00001df8       __real@4071300000000000    00432df8     BouncingBallMain.obj
 0002:00001e08       __real@4072c00000000000    00432e08     BouncingBallMain.obj
 0002:00001e18       __real@4074500000000000    00432e18     BouncingBallMain.obj
 0002:00001e28       __real@4075e00000000000    00432e28     BouncingBallMain.obj
 0002:00001e38       __real@4079a00000000000    00432e38     BouncingBallMain.obj
 0002:00001e48       __real@407c200000000000    00432e48     BouncingBallMain.obj
 0002:00001e58       __real@4081300000000000    00432e58     BouncingBallMain.obj
 0002:00001e68       __real@4082c00000000000    00432e68     BouncingBallMain.obj
 0002:00001e78       __real@4087700000000000    00432e78     BouncingBallMain.obj
 0002:00001e88       ??_7Demo1Main@@6B@         00432e88     Demo1Main.obj
 0002:00001ef8       ??_7Demo2Main@@6B@         00432ef8     Demo2Main.obj
 0002:00001f68       ??_7Demo2Object@@6B@       00432f68     Demo2Object.obj
 0002:00001f84       ??_7Demo2TileManager@@6B@  00432f84     Demo2TileManager.obj
 0002:00001f9c       ??_7Demo3Main@@6B@         00432f9c     Demo3Main.obj
 0002:00002008       ??_C@_0BA@IKMJDFDJ@bbbbbbbbbbbbbbb?$AA@ 00433008     Demo3Main.obj
 0002:0000201c       ??_C@_0BA@KIOJIFNA@baeaeadadaeaeab?$AA@ 0043301c     Demo3Main.obj
 0002:00002030       ??_C@_0BA@EEDPGBGG@babcbcbcbcbibeb?$AA@ 00433030     Demo3Main.obj
 0002:00002044       ??_C@_0BA@KPFPCIBG@badadgdadhdadhb?$AA@ 00433044     Demo3Main.obj
 0002:00002058       ??_C@_0BA@IIAFPCHL@bgbcbcbcbibcbeb?$AA@ 00433058     Demo3Main.obj
 0002:0000206c       ??_C@_0BA@NNKDJMAJ@badadadadadadab?$AA@ 0043306c     Demo3Main.obj
 0002:00002080       ??_C@_0BA@HHCBCOFJ@bfbcbibcbcbcbeb?$AA@ 00433080     Demo3Main.obj
 0002:00002094       ??_C@_0BA@FLPFLLHP@bahadadhdadadab?$AA@ 00433094     Demo3Main.obj
 0002:000020a8       ??_C@_0BA@EKBAOEOC@bfbcbcbibcbibeb?$AA@ 004330a8     Demo3Main.obj
 0002:000020bc       ??_C@_03JDANDILB@?$CFd?5?$AA@ 004330bc     Demo3Main.obj
 0002:000020c0       ??_C@_01EEMJAFIK@?6?$AA@   004330c0     Demo3Main.obj
 0002:000020c4       ??_C@_0BH@KBIJLFFA@Tile?5placement?5example?$AA@ 004330c4     Demo3Main.obj
 0002:000020e4       ??_7Demo3Object@@6B@       004330e4     Demo3Object.obj
 0002:00002100       ??_7Demo3ObjectFinished@@6B@ 00433100     Demo3ObjectFinished.obj
 0002:0000211c       ??_7Demo3TileManager@@6B@  0043311c     Demo3TileManager.obj
 0002:00002130       ??_7Demo4Main@@6B@         00433130     Demo4Main.obj
 0002:0000219c       ??_C@_0CC@DDHGPHEO@Initialised?5and?5waiting?5for?5SPAC@ 0043319c     Demo4Main.obj
 0002:000021c4       ??_C@_07JKJCPGE@Running?$AA@ 004331c4     Demo4Main.obj
 0002:000021d0       ??_C@_0CA@HICGBBB@Paused?4?5Press?5SPACE?5to?5continue?$AA@ 004331d0     Demo4Main.obj
 0002:000021fc       ??_7Demo4Object@@6B@       004331fc     Demo4Object.obj
 0002:00002218       ??_7Demo4TileManager@@6B@  00433218     Demo4TileManager.obj
 0002:0000222c       ??_7BombTileManager@@6B@   0043322c     BombTileManager.obj
 0002:0000223c       ??_C@_0BG@IKIHCFHN@?4?1psyml5_src?1bomb?4png?$AA@ 0043323c     BombTileManager.obj
 0002:00002256       ?value@?$integral_constant@_N$0A@@std@@2_NB 00433256     msvcprt:newaop_s.obj
 0002:00002257       ?value@?$integral_constant@_N$00@std@@2_NB 00433257     msvcprt:newaop_s.obj
 0002:0000225c       ??_7type_info@@6B@         0043325c     MSVCRT:ti_inst.obj
 0002:00002260       ?ProcessDetach@NativeDll@<CrtImplementationDetails>@@0IB 00433260     MSVCRT:unhandld.obj
 0002:00002264       ?ProcessAttach@NativeDll@<CrtImplementationDetails>@@0IB 00433264     MSVCRT:unhandld.obj
 0002:00002268       ?ThreadAttach@NativeDll@<CrtImplementationDetails>@@0IB 00433268     MSVCRT:unhandld.obj
 0002:0000226c       ?ThreadDetach@NativeDll@<CrtImplementationDetails>@@0IB 0043326c     MSVCRT:unhandld.obj
 0002:00002270       ?ProcessVerifier@NativeDll@<CrtImplementationDetails>@@0IB 00433270     MSVCRT:unhandld.obj
 0002:0000227c       ??_C@_05EGJIMALK@UTF?98?$AA@ 0043327c     SDL2main:SDL_windows_main.obj
 0002:00002284       ??_C@_0P@ICDEOIDM@UCS?92?9INTERNAL?$AA@ 00433284     SDL2main:SDL_windows_main.obj
 0002:00002294       ??_C@_0M@HFFOIJBL@Fatal?5Error?$AA@ 00433294     SDL2main:SDL_windows_main.obj
 0002:000022a0       ??_C@_0BJ@HFNMHALN@Out?5of?5memory?5?9?5aborting?$AA@ 004332a0     SDL2main:SDL_windows_main.obj
 0002:000022bc       ??_C@_07KJFPOMFC@?$CFs?3?5?$CFs?6?$AA@ 004332bc     SDL2main:SDL_windows_main.obj
 0002:000022c8       __load_config_used         004332c8     MSVCRT:loadcfg.obj
 0002:0000267c       ??_R4CatchableObject@@6B@  0043367c     CatchableObject.obj
 0002:00002694       ??_R3CatchableObject@@8    00433694     CatchableObject.obj
 0002:000026a8       ??_R2CatchableObject@@8    004336a8     CatchableObject.obj
 0002:000026b4       ??_R1A@?0A@EA@CatchableObject@@8 004336b4     CatchableObject.obj
 0002:000026d8       ??_R1A@?0A@EA@DisplayableObject@@8 004336d8     CatchableObject.obj
 0002:000026fc       ??_R3DisplayableObject@@8  004336fc     CatchableObject.obj
 0002:00002710       ??_R2DisplayableObject@@8  00433710     CatchableObject.obj
 0002:00002718       ??_R4error_category@std@@6B@ 00433718     CatchableObject.obj
 0002:00002730       ??_R3error_category@std@@8 00433730     CatchableObject.obj
 0002:00002744       ??_R2error_category@std@@8 00433744     CatchableObject.obj
 0002:0000274c       ??_R1A@?0A@EA@error_category@std@@8 0043374c     CatchableObject.obj
 0002:00002770       ??_R4_Generic_error_category@std@@6B@ 00433770     CatchableObject.obj
 0002:00002788       ??_R3_Generic_error_category@std@@8 00433788     CatchableObject.obj
 0002:0000279c       ??_R2_Generic_error_category@std@@8 0043379c     CatchableObject.obj
 0002:000027a8       ??_R1A@?0A@EA@_Generic_error_category@std@@8 004337a8     CatchableObject.obj
 0002:000027cc       ??_R4_Iostream_error_category@std@@6B@ 004337cc     CatchableObject.obj
 0002:000027e4       ??_R3_Iostream_error_category@std@@8 004337e4     CatchableObject.obj
 0002:000027f8       ??_R2_Iostream_error_category@std@@8 004337f8     CatchableObject.obj
 0002:00002808       ??_R1A@?0A@EA@_Iostream_error_category@std@@8 00433808     CatchableObject.obj
 0002:0000282c       ??_R4_System_error_category@std@@6B@ 0043382c     CatchableObject.obj
 0002:00002844       ??_R3_System_error_category@std@@8 00433844     CatchableObject.obj
 0002:00002858       ??_R2_System_error_category@std@@8 00433858     CatchableObject.obj
 0002:00002868       ??_R1A@?0A@EA@_System_error_category@std@@8 00433868     CatchableObject.obj
 0002:0000288c       ??_R4DemoAMain@@6B@        0043388c     DemoAMain.obj
 0002:000028a4       ??_R3DemoAMain@@8          004338a4     DemoAMain.obj
 0002:000028b8       ??_R2DemoAMain@@8          004338b8     DemoAMain.obj
 0002:000028c4       ??_R1A@?0A@EA@DemoAMain@@8 004338c4     DemoAMain.obj
 0002:000028e8       ??_R1A@?0A@EA@BaseEngine@@8 004338e8     DemoAMain.obj
 0002:0000290c       ??_R3BaseEngine@@8         0043390c     DemoAMain.obj
 0002:00002920       ??_R2BaseEngine@@8         00433920     DemoAMain.obj
 0002:00002928       ??_R4DemoBObject@@6B@      00433928     DemoBObject.obj
 0002:00002940       ??_R3DemoBObject@@8        00433940     DemoBObject.obj
 0002:00002954       ??_R2DemoBObject@@8        00433954     DemoBObject.obj
 0002:00002960       ??_R1A@?0A@EA@DemoBObject@@8 00433960     DemoBObject.obj
 0002:00002984       ??_R4DiamondObject@@6B@    00433984     DiamondObject.obj
 0002:0000299c       ??_R3DiamondObject@@8      0043399c     DiamondObject.obj
 0002:000029b0       ??_R2DiamondObject@@8      004339b0     DiamondObject.obj
 0002:000029c4       ??_R1A@?0A@EA@DiamondObject@@8 004339c4     DiamondObject.obj
 0002:000029e8       ??_R1A@?0A@EA@StableObject@@8 004339e8     DiamondObject.obj
 0002:00002a0c       ??_R3StableObject@@8       00433a0c     DiamondObject.obj
 0002:00002a20       ??_R2StableObject@@8       00433a20     DiamondObject.obj
 0002:00002a30       ??_R4?$basic_filebuf@DU?$char_traits@D@std@@@std@@6B@ 00433a30     GoldenManEngine.obj
 0002:00002a48       ??_R3?$basic_filebuf@DU?$char_traits@D@std@@@std@@8 00433a48     GoldenManEngine.obj
 0002:00002a5c       ??_R2?$basic_filebuf@DU?$char_traits@D@std@@@std@@8 00433a5c     GoldenManEngine.obj
 0002:00002a68       ??_R1A@?0A@EA@?$basic_filebuf@DU?$char_traits@D@std@@@std@@8 00433a68     GoldenManEngine.obj
 0002:00002a8c       ??_R1A@?0A@EA@?$basic_streambuf@DU?$char_traits@D@std@@@std@@8 00433a8c     GoldenManEngine.obj
 0002:00002ab0       ??_R3?$basic_streambuf@DU?$char_traits@D@std@@@std@@8 00433ab0     GoldenManEngine.obj
 0002:00002ac4       ??_R2?$basic_streambuf@DU?$char_traits@D@std@@@std@@8 00433ac4     GoldenManEngine.obj
 0002:00002acc       ??_R4?$basic_ifstream@DU?$char_traits@D@std@@@std@@6B@ 00433acc     GoldenManEngine.obj
 0002:00002ae4       ??_R3?$basic_ifstream@DU?$char_traits@D@std@@@std@@8 00433ae4     GoldenManEngine.obj
 0002:00002af8       ??_R2?$basic_ifstream@DU?$char_traits@D@std@@@std@@8 00433af8     GoldenManEngine.obj
 0002:00002b14       ??_R1A@?0A@EA@?$basic_ifstream@DU?$char_traits@D@std@@@std@@8 00433b14     GoldenManEngine.obj
 0002:00002b38       ??_R1A@?0A@EA@?$basic_istream@DU?$char_traits@D@std@@@std@@8 00433b38     GoldenManEngine.obj
 0002:00002b5c       ??_R3?$basic_istream@DU?$char_traits@D@std@@@std@@8 00433b5c     GoldenManEngine.obj
 0002:00002b70       ??_R2?$basic_istream@DU?$char_traits@D@std@@@std@@8 00433b70     GoldenManEngine.obj
 0002:00002b84       ??_R1A@A@3FA@?$basic_ios@DU?$char_traits@D@std@@@std@@8 00433b84     GoldenManEngine.obj
 0002:00002ba8       ??_R3?$basic_ios@DU?$char_traits@D@std@@@std@@8 00433ba8     GoldenManEngine.obj
 0002:00002bbc       ??_R2?$basic_ios@DU?$char_traits@D@std@@@std@@8 00433bbc     GoldenManEngine.obj
 0002:00002bcc       ??_R1A@?0A@EA@?$basic_ios@DU?$char_traits@D@std@@@std@@8 00433bcc     GoldenManEngine.obj
 0002:00002bf0       ??_R1A@?0A@EA@ios_base@std@@8 00433bf0     GoldenManEngine.obj
 0002:00002c14       ??_R3ios_base@std@@8       00433c14     GoldenManEngine.obj
 0002:00002c28       ??_R2ios_base@std@@8       00433c28     GoldenManEngine.obj
 0002:00002c34       ??_R17?0A@EA@?$_Iosb@H@std@@8 00433c34     GoldenManEngine.obj
 0002:00002c58       ??_R3?$_Iosb@H@std@@8      00433c58     GoldenManEngine.obj
 0002:00002c6c       ??_R2?$_Iosb@H@std@@8      00433c6c     GoldenManEngine.obj
 0002:00002c74       ??_R1A@?0A@EA@?$_Iosb@H@std@@8 00433c74     GoldenManEngine.obj
 0002:00002c98       ??_R1A@A@3EA@ios_base@std@@8 00433c98     GoldenManEngine.obj
 0002:00002cbc       ??_R17A@3EA@?$_Iosb@H@std@@8 00433cbc     GoldenManEngine.obj
 0002:00002ce0       ??_R4?$basic_ofstream@DU?$char_traits@D@std@@@std@@6B@ 00433ce0     GoldenManEngine.obj
 0002:00002cf8       ??_R3?$basic_ofstream@DU?$char_traits@D@std@@@std@@8 00433cf8     GoldenManEngine.obj
 0002:00002d0c       ??_R2?$basic_ofstream@DU?$char_traits@D@std@@@std@@8 00433d0c     GoldenManEngine.obj
 0002:00002d28       ??_R1A@?0A@EA@?$basic_ofstream@DU?$char_traits@D@std@@@std@@8 00433d28     GoldenManEngine.obj
 0002:00002d4c       ??_R1A@?0A@EA@?$basic_ostream@DU?$char_traits@D@std@@@std@@8 00433d4c     GoldenManEngine.obj
 0002:00002d70       ??_R3?$basic_ostream@DU?$char_traits@D@std@@@std@@8 00433d70     GoldenManEngine.obj
 0002:00002d84       ??_R2?$basic_ostream@DU?$char_traits@D@std@@@std@@8 00433d84     GoldenManEngine.obj
 0002:00002d98       ??_R4GoldenManEngine@@6B@  00433d98     GoldenManEngine.obj
 0002:00002db0       ??_R3GoldenManEngine@@8    00433db0     GoldenManEngine.obj
 0002:00002dc4       ??_R2GoldenManEngine@@8    00433dc4     GoldenManEngine.obj
 0002:00002dd0       ??_R1A@?0A@EA@GoldenManEngine@@8 00433dd0     GoldenManEngine.obj
 0002:00002df4       ??_R4GoldObject@@6B@       00433df4     GoldObject.obj
 0002:00002e0c       ??_R3GoldObject@@8         00433e0c     GoldObject.obj
 0002:00002e20       ??_R2GoldObject@@8         00433e20     GoldObject.obj
 0002:00002e34       ??_R1A@?0A@EA@GoldObject@@8 00433e34     GoldObject.obj
 0002:00002e58       ??_R4HookObject@@6B@       00433e58     HookObject.obj
 0002:00002e70       ??_R3HookObject@@8         00433e70     HookObject.obj
 0002:00002e84       ??_R2HookObject@@8         00433e84     HookObject.obj
 0002:00002e90       ??_R1A@?0A@EA@HookObject@@8 00433e90     HookObject.obj
 0002:00002eb4       ??_R4BaseEngine@@6B@       00433eb4     BaseEngine.obj
 0002:00002ecc       ??_R4DisplayableObject@@6B@ 00433ecc     DisplayableObject.obj
 0002:00002ee4       ??_R4Psyml5Engine@@6B@     00433ee4     Psyml5Engine.obj
 0002:00002efc       ??_R3Psyml5Engine@@8       00433efc     Psyml5Engine.obj
 0002:00002f10       ??_R2Psyml5Engine@@8       00433f10     Psyml5Engine.obj
 0002:00002f1c       ??_R1A@?0A@EA@Psyml5Engine@@8 00433f1c     Psyml5Engine.obj
 0002:00002f40       ??_R4Psyml5Object1@@6B@    00433f40     Psyml5Object1.obj
 0002:00002f58       ??_R3Psyml5Object1@@8      00433f58     Psyml5Object1.obj
 0002:00002f6c       ??_R2Psyml5Object1@@8      00433f6c     Psyml5Object1.obj
 0002:00002f78       ??_R1A@?0A@EA@Psyml5Object1@@8 00433f78     Psyml5Object1.obj
 0002:00002f9c       ??_R4Psyml5Object2@@6B@    00433f9c     Psyml5Object2.obj
 0002:00002fb4       ??_R3Psyml5Object2@@8      00433fb4     Psyml5Object2.obj
 0002:00002fc8       ??_R2Psyml5Object2@@8      00433fc8     Psyml5Object2.obj
 0002:00002fd4       ??_R1A@?0A@EA@Psyml5Object2@@8 00433fd4     Psyml5Object2.obj
 0002:00002ff8       ??_R4TileManager@@6B@      00433ff8     Psyml5TileManager.obj
 0002:00003010       ??_R3TileManager@@8        00434010     Psyml5TileManager.obj
 0002:00003024       ??_R2TileManager@@8        00434024     Psyml5TileManager.obj
 0002:0000302c       ??_R1A@?0A@EA@TileManager@@8 0043402c     Psyml5TileManager.obj
 0002:00003050       ??_R4Psyml5TileManager@@6B@ 00434050     Psyml5TileManager.obj
 0002:00003068       ??_R3Psyml5TileManager@@8  00434068     Psyml5TileManager.obj
 0002:0000307c       ??_R2Psyml5TileManager@@8  0043407c     Psyml5TileManager.obj
 0002:00003088       ??_R1A@?0A@EA@Psyml5TileManager@@8 00434088     Psyml5TileManager.obj
 0002:000030ac       ??_R4RunningPig@@6B@       004340ac     RunningPig.obj
 0002:000030c4       ??_R3RunningPig@@8         004340c4     RunningPig.obj
 0002:000030d8       ??_R2RunningPig@@8         004340d8     RunningPig.obj
 0002:000030e8       ??_R1A@?0A@EA@RunningPig@@8 004340e8     RunningPig.obj
 0002:0000310c       ??_R4RunningPigDiamond@@6B@ 0043410c     RunningPigDiamond.obj
 0002:00003124       ??_R3RunningPigDiamond@@8  00434124     RunningPigDiamond.obj
 0002:00003138       ??_R2RunningPigDiamond@@8  00434138     RunningPigDiamond.obj
 0002:0000314c       ??_R1A@?0A@EA@RunningPigDiamond@@8 0043414c     RunningPigDiamond.obj
 0002:00003170       ??_R4SimpleShape@@6B@      00434170     SimpleDemo.obj
 0002:00003188       ??_R3SimpleShape@@8        00434188     SimpleDemo.obj
 0002:0000319c       ??_R2SimpleShape@@8        0043419c     SimpleDemo.obj
 0002:000031a8       ??_R1A@?0A@EA@SimpleShape@@8 004341a8     SimpleDemo.obj
 0002:000031cc       ??_R4StableObject@@6B@     004341cc     StableObject.obj
 0002:000031e4       ??_R4StoneObject@@6B@      004341e4     StoneObject.obj
 0002:000031fc       ??_R3StoneObject@@8        004341fc     StoneObject.obj
 0002:00003210       ??_R2StoneObject@@8        00434210     StoneObject.obj
 0002:00003224       ??_R1A@?0A@EA@StoneObject@@8 00434224     StoneObject.obj
 0002:00003248       ??_R4BouncingBall@@6B@     00434248     BouncingBall.obj
 0002:00003260       ??_R3BouncingBall@@8       00434260     BouncingBall.obj
 0002:00003274       ??_R2BouncingBall@@8       00434274     BouncingBall.obj
 0002:00003280       ??_R1A@?0A@EA@BouncingBall@@8 00434280     BouncingBall.obj
 0002:000032a4       ??_R4BouncingBall1@@6B@    004342a4     BouncingBall.obj
 0002:000032bc       ??_R3BouncingBall1@@8      004342bc     BouncingBall.obj
 0002:000032d0       ??_R2BouncingBall1@@8      004342d0     BouncingBall.obj
 0002:000032e0       ??_R1A@?0A@EA@BouncingBall1@@8 004342e0     BouncingBall.obj
 0002:00003304       ??_R4BouncingBall2@@6B@    00434304     BouncingBall.obj
 0002:0000331c       ??_R3BouncingBall2@@8      0043431c     BouncingBall.obj
 0002:00003330       ??_R2BouncingBall2@@8      00434330     BouncingBall.obj
 0002:00003340       ??_R1A@?0A@EA@BouncingBall2@@8 00434340     BouncingBall.obj
 0002:00003364       ??_R4Demo1Main@@6B@        00434364     Demo1Main.obj
 0002:0000337c       ??_R3Demo1Main@@8          0043437c     Demo1Main.obj
 0002:00003390       ??_R2Demo1Main@@8          00434390     Demo1Main.obj
 0002:0000339c       ??_R1A@?0A@EA@Demo1Main@@8 0043439c     Demo1Main.obj
 0002:000033c0       ??_R4Demo2Main@@6B@        004343c0     Demo2Main.obj
 0002:000033d8       ??_R3Demo2Main@@8          004343d8     Demo2Main.obj
 0002:000033ec       ??_R2Demo2Main@@8          004343ec     Demo2Main.obj
 0002:000033f8       ??_R1A@?0A@EA@Demo2Main@@8 004343f8     Demo2Main.obj
 0002:0000341c       ??_R4Demo2Object@@6B@      0043441c     Demo2Object.obj
 0002:00003434       ??_R3Demo2Object@@8        00434434     Demo2Object.obj
 0002:00003448       ??_R2Demo2Object@@8        00434448     Demo2Object.obj
 0002:00003454       ??_R1A@?0A@EA@Demo2Object@@8 00434454     Demo2Object.obj
 0002:00003478       ??_R4Demo2TileManager@@6B@ 00434478     Demo2TileManager.obj
 0002:00003490       ??_R3Demo2TileManager@@8   00434490     Demo2TileManager.obj
 0002:000034a4       ??_R2Demo2TileManager@@8   004344a4     Demo2TileManager.obj
 0002:000034b0       ??_R1A@?0A@EA@Demo2TileManager@@8 004344b0     Demo2TileManager.obj
 0002:000034d4       ??_R4Demo3Main@@6B@        004344d4     Demo3Main.obj
 0002:000034ec       ??_R3Demo3Main@@8          004344ec     Demo3Main.obj
 0002:00003500       ??_R2Demo3Main@@8          00434500     Demo3Main.obj
 0002:0000350c       ??_R1A@?0A@EA@Demo3Main@@8 0043450c     Demo3Main.obj
 0002:00003530       ??_R4Demo3Object@@6B@      00434530     Demo3Object.obj
 0002:00003548       ??_R3Demo3Object@@8        00434548     Demo3Object.obj
 0002:0000355c       ??_R2Demo3Object@@8        0043455c     Demo3Object.obj
 0002:00003568       ??_R1A@?0A@EA@Demo3Object@@8 00434568     Demo3Object.obj
 0002:0000358c       ??_R4Demo3ObjectFinished@@6B@ 0043458c     Demo3ObjectFinished.obj
 0002:000035a4       ??_R3Demo3ObjectFinished@@8 004345a4     Demo3ObjectFinished.obj
 0002:000035b8       ??_R2Demo3ObjectFinished@@8 004345b8     Demo3ObjectFinished.obj
 0002:000035c4       ??_R1A@?0A@EA@Demo3ObjectFinished@@8 004345c4     Demo3ObjectFinished.obj
 0002:000035e8       ??_R4Demo3TileManager@@6B@ 004345e8     Demo3TileManager.obj
 0002:00003600       ??_R3Demo3TileManager@@8   00434600     Demo3TileManager.obj
 0002:00003614       ??_R2Demo3TileManager@@8   00434614     Demo3TileManager.obj
 0002:00003620       ??_R1A@?0A@EA@Demo3TileManager@@8 00434620     Demo3TileManager.obj
 0002:00003644       ??_R4Demo4Main@@6B@        00434644     Demo4Main.obj
 0002:0000365c       ??_R3Demo4Main@@8          0043465c     Demo4Main.obj
 0002:00003670       ??_R2Demo4Main@@8          00434670     Demo4Main.obj
 0002:0000367c       ??_R1A@?0A@EA@Demo4Main@@8 0043467c     Demo4Main.obj
 0002:000036a0       ??_R4Demo4Object@@6B@      004346a0     Demo4Object.obj
 0002:000036b8       ??_R3Demo4Object@@8        004346b8     Demo4Object.obj
 0002:000036cc       ??_R2Demo4Object@@8        004346cc     Demo4Object.obj
 0002:000036d8       ??_R1A@?0A@EA@Demo4Object@@8 004346d8     Demo4Object.obj
 0002:000036fc       ??_R4Demo4TileManager@@6B@ 004346fc     Demo4TileManager.obj
 0002:00003714       ??_R3Demo4TileManager@@8   00434714     Demo4TileManager.obj
 0002:00003728       ??_R2Demo4TileManager@@8   00434728     Demo4TileManager.obj
 0002:00003734       ??_R1A@?0A@EA@Demo4TileManager@@8 00434734     Demo4TileManager.obj
 0002:00003758       ??_R4BombTileManager@@6B@  00434758     BombTileManager.obj
 0002:00003770       ??_R3BombTileManager@@8    00434770     BombTileManager.obj
 0002:00003784       ??_R2BombTileManager@@8    00434784     BombTileManager.obj
 0002:00003790       ??_R1A@?0A@EA@BombTileManager@@8 00434790     BombTileManager.obj
 0002:000037b4       ??_R4type_info@@6B@        004347b4     MSVCRT:ti_inst.obj
 0002:000037c8       ??_R3type_info@@8          004347c8     MSVCRT:ti_inst.obj
 0002:000037d8       ??_R2type_info@@8          004347d8     MSVCRT:ti_inst.obj
 0002:000037e0       ??_R1A@?0A@EA@type_info@@8 004347e0     MSVCRT:ti_inst.obj
 0002:00003990       ___safe_se_handler_table   00434990     <linker-defined>
 0002:00003c28       ___rtc_iaa                 00434c28     MSVCRT:initsect.obj
 0002:00003d2c       ___rtc_izz                 00434d2c     MSVCRT:initsect.obj
 0002:00003e30       ___rtc_taa                 00434e30     MSVCRT:initsect.obj
 0002:00003f34       ___rtc_tzz                 00434f34     MSVCRT:initsect.obj
 0002:000049e4       __CT??_R0?AVexception@std@@@8??0exception@std@@QAE@ABV01@@Z12 004359e4     GoldenManEngine.obj
 0002:00004a04       __TI2?AVbad_cast@std@@     00435a04     GoldenManEngine.obj
 0002:00004a18       __CTA2?AVbad_cast@std@@    00435a18     GoldenManEngine.obj
 0002:00004a28       __CT??_R0?AVbad_cast@std@@@8??0bad_cast@std@@QAE@ABV01@@Z12 00435a28     GoldenManEngine.obj
 0003:00000000       ?name_helper@@3PADA        00437000     GoldenManEngine.obj
 0003:0000003c       ___security_cookie         0043703c     MSVCRT:gs_cookie.obj
 0003:00000040       ___security_cookie_complement 00437040     MSVCRT:gs_cookie.obj
 0003:00000050       ___defaultmatherr          00437050     MSVCRT:merr.obj
 0003:00000060       ___globallocalestatus      00437060     MSVCRT:xthdloc.obj
 0003:00000064       ___native_dllmain_reason   00437064     MSVCRT:natstart.obj
 0003:00000170       ??_R0?AVDisplayableObject@@@8 00437170     CatchableObject.obj
 0003:00000198       ??_R0?AVHookObject@@@8     00437198     CatchableObject.obj
 0003:000001b8       ??_R0?AVCatchableObject@@@8 004371b8     CatchableObject.obj
 0003:000001dc       ??_R0?AVerror_category@std@@@8 004371dc     CatchableObject.obj
 0003:00000204       ??_R0?AV_Generic_error_category@std@@@8 00437204     CatchableObject.obj
 0003:00000238       ??_R0?AV_Iostream_error_category@std@@@8 00437238     CatchableObject.obj
 0003:0000026c       ??_R0?AV_System_error_category@std@@@8 0043726c     CatchableObject.obj
 0003:000002a0       ??_R0?AVDemoAMain@@@8      004372a0     DemoAMain.obj
 0003:000002bc       ??_R0?AVBaseEngine@@@8     004372bc     DemoAMain.obj
 0003:000002dc       ??_R0?AVDemoBObject@@@8    004372dc     DemoBObject.obj
 0003:000002fc       ??_R0?AVDiamondObject@@@8  004372fc     DiamondObject.obj
 0003:00000320       ??_R0?AVStableObject@@@8   00437320     DiamondObject.obj
 0003:00000340       ??_R0?AVexception@std@@@8  00437340     GoldenManEngine.obj
 0003:00000364       ??_R0?AVbad_cast@std@@@8   00437364     GoldenManEngine.obj
 0003:00000384       ??_R0?AV?$basic_filebuf@DU?$char_traits@D@std@@@std@@@8 00437384     GoldenManEngine.obj
 0003:000003cc       ??_R0?AV?$basic_streambuf@DU?$char_traits@D@std@@@std@@@8 004373cc     GoldenManEngine.obj
 0003:00000414       ??_R0?AV?$basic_ifstream@DU?$char_traits@D@std@@@std@@@8 00437414     GoldenManEngine.obj
 0003:0000045c       ??_R0?AV?$basic_istream@DU?$char_traits@D@std@@@std@@@8 0043745c     GoldenManEngine.obj
 0003:000004a4       ??_R0?AV?$basic_ios@DU?$char_traits@D@std@@@std@@@8 004374a4     GoldenManEngine.obj
 0003:000004e4       ??_R0?AVios_base@std@@@8   004374e4     GoldenManEngine.obj
 0003:00000504       ??_R0?AV?$_Iosb@H@std@@@8  00437504     GoldenManEngine.obj
 0003:00000528       ??_R0?AV?$basic_ofstream@DU?$char_traits@D@std@@@std@@@8 00437528     GoldenManEngine.obj
 0003:00000570       ??_R0?AV?$basic_ostream@DU?$char_traits@D@std@@@std@@@8 00437570     GoldenManEngine.obj
 0003:000005b8       ??_R0?AVGoldenManEngine@@@8 004375b8     GoldenManEngine.obj
 0003:000005dc       ??_R0?AVGoldObject@@@8     004375dc     GoldObject.obj
 0003:000005fc       ??_R0?AVPsyml5Engine@@@8   004375fc     Psyml5Engine.obj
 0003:0000061c       ??_R0?AVPsyml5Object1@@@8  0043761c     Psyml5Object1.obj
 0003:00000640       ??_R0?AVPsyml5Object2@@@8  00437640     Psyml5Object2.obj
 0003:00000664       ??_R0?AVTileManager@@@8    00437664     Psyml5TileManager.obj
 0003:00000684       ??_R0?AVPsyml5TileManager@@@8 00437684     Psyml5TileManager.obj
 0003:000006ac       ??_R0?AVRunningPig@@@8     004376ac     RunningPig.obj
 0003:000006cc       ??_R0?AVRunningPigDiamond@@@8 004376cc     RunningPigDiamond.obj
 0003:000006f4       ??_R0?AVSimpleShape@@@8    004376f4     SimpleDemo.obj
 0003:00000714       ??_R0?AVStoneObject@@@8    00437714     StoneObject.obj
 0003:00000734       ??_R0?AVBouncingBall@@@8   00437734     BouncingBall.obj
 0003:00000754       ??_R0?AVBouncingBall1@@@8  00437754     BouncingBall.obj
 0003:00000778       ??_R0?AVBouncingBall2@@@8  00437778     BouncingBall.obj
 0003:0000079c       ??_R0?AVDemo1Main@@@8      0043779c     Demo1Main.obj
 0003:000007b8       ??_R0?AVDemo2Main@@@8      004377b8     Demo2Main.obj
 0003:000007d4       ??_R0?AVDemo2Object@@@8    004377d4     Demo2Object.obj
 0003:000007f4       ??_R0?AVDemo2TileManager@@@8 004377f4     Demo2TileManager.obj
 0003:0000081c       ??_R0?AVDemo3Main@@@8      0043781c     Demo3Main.obj
 0003:00000838       ??_R0?AVDemo3Object@@@8    00437838     Demo3Object.obj
 0003:00000858       ??_R0?AVDemo3ObjectFinished@@@8 00437858     Demo3ObjectFinished.obj
 0003:00000880       ??_R0?AVDemo3TileManager@@@8 00437880     Demo3TileManager.obj
 0003:000008a8       ??_R0?AVDemo4Main@@@8      004378a8     Demo4Main.obj
 0003:000008c4       ??_R0?AVDemo4Object@@@8    004378c4     Demo4Object.obj
 0003:000008e4       ??_R0?AVDemo4TileManager@@@8 004378e4     Demo4TileManager.obj
 0003:0000090c       ??_R0?AVBombTileManager@@@8 0043790c     BombTileManager.obj
 0003:00000930       ??_R0?AVtype_info@@@8      00437930     MSVCRT:ti_inst.obj
 0003:00000a74       ?_Generic_object@?$_Error_objects@H@std@@2V_Generic_error_category@2@A 00437a74     CatchableObject.obj
 0003:00000a78       ?_Iostream_object@?$_Error_objects@H@std@@2V_Iostream_error_category@2@A 00437a78     CatchableObject.obj
 0003:00000a7c       ?_System_object@?$_Error_objects@H@std@@2V_System_error_category@2@A 00437a7c     CatchableObject.obj
 0003:00000a80       ?id@?$num_put@DV?$back_insert_iterator@V?$basic_string@DU?$char_traits@D@std@@V?$allocator@D@2@@std@@@std@@@std@@2V0locale@2@A 00437a80     CatchableObject.obj
 0003:00000a84       ?id@?$num_put@_WV?$back_insert_iterator@V?$basic_string@_WU?$char_traits@_W@std@@V?$allocator@_W@2@@std@@@std@@@std@@2V0locale@2@A 00437a84     CatchableObject.obj
 0003:00000a98       ?_Stinit@?1??_Init@?$basic_filebuf@DU?$char_traits@D@std@@@std@@IAEXPAU_iobuf@@W4_Initfl@23@@Z@4HA 00437a98     GoldenManEngine.obj
 0003:00000a9c       ?_Psave@?$_Facetptr@V?$codecvt@DDH@std@@@std@@2PBVfacet@locale@2@B 00437a9c     GoldenManEngine.obj
 0003:00000aa4       ?load@HookObject@@2HA      00437aa4     HookObject.obj
 0003:00000abc       ?g_iGlobalRotation@ImageData@@1HA 00437abc     JPGImage.obj
 0003:00000ac0       ?g_iGlobalCropLeft@ImageData@@1HA 00437ac0     JPGImage.obj
 0003:00000ac4       ?g_iGlobalCropRight@ImageData@@1HA 00437ac4     JPGImage.obj
 0003:00000ac8       ?g_iGlobalCropTop@ImageData@@1HA 00437ac8     JPGImage.obj
 0003:00000acc       ?g_iGlobalCropBottom@ImageData@@1HA 00437acc     JPGImage.obj
 0003:00000b5c       __commode                  00437b5c     MSVCRT:xncommod.obj
 0003:00000b60       __dowildcard               00437b60     MSVCRT:wildcard.obj
 0003:00000b64       __newmode                  00437b64     MSVCRT:_newmode.obj
 0003:00000b68       __fmode                    00437b68     MSVCRT:xtxtmode.obj
 0003:00000e90       ___native_startup_lock     00437e90     <common>
 0003:00000ea0       ___native_startup_state    00437ea0     <common>
 0003:00000ea4       ___onexitend               00437ea4     <common>
 0003:00000eb4       ___onexitbegin             00437eb4     <common>
 0003:00000eb8       ___dyn_tls_init_callback   00437eb8     <common>
 0004:00000000       __imp__IsDebuggerPresent@0 00438000     kernel32:KERNEL32.dll
 0004:00000004       __imp__GetSystemTimeAsFileTime@4 00438004     kernel32:KERNEL32.dll
 0004:00000008       __imp__GetCurrentThreadId@0 00438008     kernel32:KERNEL32.dll
 0004:0000000c       __imp__GetCurrentProcessId@0 0043800c     kernel32:KERNEL32.dll
 0004:00000010       __imp__QueryPerformanceCounter@4 00438010     kernel32:KERNEL32.dll
 0004:00000014       __imp__DecodePointer@4     00438014     kernel32:KERNEL32.dll
 0004:00000018       __imp__EncodePointer@4     00438018     kernel32:KERNEL32.dll
 0004:0000001c       __imp__GetCommandLineW@0   0043801c     kernel32:KERNEL32.dll
 0004:00000020       __imp__IsProcessorFeaturePresent@4 00438020     kernel32:KERNEL32.dll
 0004:00000024       \177KERNEL32_NULL_THUNK_DATA 00438024     kernel32:KERNEL32.dll
 0004:00000054       __imp_?_BADOFF@std@@3_JB   00438054     msvcprt:MSVCP120.dll
 0004:00000058       __imp_?xsputn@?$basic_streambuf@DU?$char_traits@D@std@@@std@@MAE_JPBD_J@Z 00438058     msvcprt:MSVCP120.dll
 0004:0000005c       __imp_?xsgetn@?$basic_streambuf@DU?$char_traits@D@std@@@std@@MAE_JPAD_J@Z 0043805c     msvcprt:MSVCP120.dll
 0004:00000060       __imp_?showmanyc@?$basic_streambuf@DU?$char_traits@D@std@@@std@@MAE_JXZ 00438060     msvcprt:MSVCP120.dll
 0004:00000064       __imp_?_Fiopen@std@@YAPAU_iobuf@@PBDHH@Z 00438064     msvcprt:MSVCP120.dll
 0004:00000068       __imp_?cout@std@@3V?$basic_ostream@DU?$char_traits@D@std@@@1@A 00438068     msvcprt:MSVCP120.dll
 0004:0000006c       __imp_??1?$basic_istream@DU?$char_traits@D@std@@@std@@UAE@XZ 0043806c     msvcprt:MSVCP120.dll
 0004:00000070       __imp_??0?$basic_istream@DU?$char_traits@D@std@@@std@@QAE@PAV?$basic_streambuf@DU?$char_traits@D@std@@@1@_N@Z 00438070     msvcprt:MSVCP120.dll
 0004:00000074       __imp_?flush@?$basic_ostream@DU?$char_traits@D@std@@@std@@QAEAAV12@XZ 00438074     msvcprt:MSVCP120.dll
 0004:00000078       __imp_?put@?$basic_ostream@DU?$char_traits@D@std@@@std@@QAEAAV12@D@Z 00438078     msvcprt:MSVCP120.dll
 0004:0000007c       __imp_??6?$basic_ostream@DU?$char_traits@D@std@@@std@@QAEAAV01@H@Z 0043807c     msvcprt:MSVCP120.dll
 0004:00000080       __imp_??6?$basic_ostream@DU?$char_traits@D@std@@@std@@QAEAAV01@P6AAAV01@AAV01@@Z@Z 00438080     msvcprt:MSVCP120.dll
 0004:00000084       __imp_?_Osfx@?$basic_ostream@DU?$char_traits@D@std@@@std@@QAEXXZ 00438084     msvcprt:MSVCP120.dll
 0004:00000088       __imp_??1?$basic_ostream@DU?$char_traits@D@std@@@std@@UAE@XZ 00438088     msvcprt:MSVCP120.dll
 0004:0000008c       __imp_??0?$basic_ostream@DU?$char_traits@D@std@@@std@@QAE@PAV?$basic_streambuf@DU?$char_traits@D@std@@@1@_N@Z 0043808c     msvcprt:MSVCP120.dll
 0004:00000090       __imp_??0?$basic_ios@DU?$char_traits@D@std@@@std@@IAE@XZ 00438090     msvcprt:MSVCP120.dll
 0004:00000094       __imp_?widen@?$basic_ios@DU?$char_traits@D@std@@@std@@QBEDD@Z 00438094     msvcprt:MSVCP120.dll
 0004:00000098       __imp_?fill@?$basic_ios@DU?$char_traits@D@std@@@std@@QBEDXZ 00438098     msvcprt:MSVCP120.dll
 0004:0000009c       __imp_?_Orphan_all@_Container_base0@std@@QAEXXZ 0043809c     msvcprt:MSVCP120.dll
 0004:000000a0       __imp_?_Ipfx@?$basic_istream@DU?$char_traits@D@std@@@std@@QAE_N_N@Z 004380a0     msvcprt:MSVCP120.dll
 0004:000000a4       __imp_?_Xbad_alloc@std@@YAXXZ 004380a4     msvcprt:MSVCP120.dll
 0004:000000a8       __imp_?_Xlength_error@std@@YAXPBD@Z 004380a8     msvcprt:MSVCP120.dll
 0004:000000ac       __imp_?_Xout_of_range@std@@YAXPBD@Z 004380ac     msvcprt:MSVCP120.dll
 0004:000000b0       __imp_??0id@locale@std@@QAE@I@Z 004380b0     msvcprt:MSVCP120.dll
 0004:000000b4       __imp_?_Syserror_map@std@@YAPBDH@Z 004380b4     msvcprt:MSVCP120.dll
 0004:000000b8       __imp_?_Winerror_map@std@@YAPBDH@Z 004380b8     msvcprt:MSVCP120.dll
 0004:000000bc       __imp_??0_Lockit@std@@QAE@H@Z 004380bc     msvcprt:MSVCP120.dll
 0004:000000c0       __imp_??1_Lockit@std@@QAE@XZ 004380c0     msvcprt:MSVCP120.dll
 0004:000000c4       __imp_?uncaught_exception@std@@YA_NXZ 004380c4     msvcprt:MSVCP120.dll
 0004:000000c8       __imp_?_Swap_all@_Container_base0@std@@QAEXAAU12@@Z 004380c8     msvcprt:MSVCP120.dll
 0004:000000cc       __imp_?_Xinvalid_argument@std@@YAXPBD@Z 004380cc     msvcprt:MSVCP120.dll
 0004:000000d0       __imp_??Bid@locale@std@@QAEIXZ 004380d0     msvcprt:MSVCP120.dll
 0004:000000d4       __imp_?_Getgloballocale@locale@std@@CAPAV_Locimp@12@XZ 004380d4     msvcprt:MSVCP120.dll
 0004:000000d8       __imp_?always_noconv@codecvt_base@std@@QBE_NXZ 004380d8     msvcprt:MSVCP120.dll
 0004:000000dc       __imp_?in@?$codecvt@DDH@std@@QBEHAAHPBD1AAPBDPAD3AAPAD@Z 004380dc     msvcprt:MSVCP120.dll
 0004:000000e0       __imp_?out@?$codecvt@DDH@std@@QBEHAAHPBD1AAPBDPAD3AAPAD@Z 004380e0     msvcprt:MSVCP120.dll
 0004:000000e4       __imp_?unshift@?$codecvt@DDH@std@@QBEHAAHPAD1AAPAD@Z 004380e4     msvcprt:MSVCP120.dll
 0004:000000e8       __imp_?_Getcat@?$codecvt@DDH@std@@SAIPAPBVfacet@locale@2@PBV42@@Z 004380e8     msvcprt:MSVCP120.dll
 0004:000000ec       __imp_??Bios_base@std@@QBE_NXZ 004380ec     msvcprt:MSVCP120.dll
 0004:000000f0       __imp_?good@ios_base@std@@QBE_NXZ 004380f0     msvcprt:MSVCP120.dll
 0004:000000f4       __imp_?flags@ios_base@std@@QBEHXZ 004380f4     msvcprt:MSVCP120.dll
 0004:000000f8       __imp_?width@ios_base@std@@QBE_JXZ 004380f8     msvcprt:MSVCP120.dll
 0004:000000fc       __imp_?width@ios_base@std@@QAE_J_J@Z 004380fc     msvcprt:MSVCP120.dll
 0004:00000100       __imp_??0?$basic_streambuf@DU?$char_traits@D@std@@@std@@IAE@XZ 00438100     msvcprt:MSVCP120.dll
 0004:00000104       __imp_??1?$basic_streambuf@DU?$char_traits@D@std@@@std@@UAE@XZ 00438104     msvcprt:MSVCP120.dll
 0004:00000108       __imp_?getloc@?$basic_streambuf@DU?$char_traits@D@std@@@std@@QBE?AVlocale@2@XZ 00438108     msvcprt:MSVCP120.dll
 0004:0000010c       __imp_?sbumpc@?$basic_streambuf@DU?$char_traits@D@std@@@std@@QAEHXZ 0043810c     msvcprt:MSVCP120.dll
 0004:00000110       __imp_?sgetc@?$basic_streambuf@DU?$char_traits@D@std@@@std@@QAEHXZ 00438110     msvcprt:MSVCP120.dll
 0004:00000114       __imp_?snextc@?$basic_streambuf@DU?$char_traits@D@std@@@std@@QAEHXZ 00438114     msvcprt:MSVCP120.dll
 0004:00000118       __imp_?sputc@?$basic_streambuf@DU?$char_traits@D@std@@@std@@QAEHD@Z 00438118     msvcprt:MSVCP120.dll
 0004:0000011c       __imp_?sputn@?$basic_streambuf@DU?$char_traits@D@std@@@std@@QAE_JPBD_J@Z 0043811c     msvcprt:MSVCP120.dll
 0004:00000120       __imp_?eback@?$basic_streambuf@DU?$char_traits@D@std@@@std@@IBEPADXZ 00438120     msvcprt:MSVCP120.dll
 0004:00000124       __imp_?gptr@?$basic_streambuf@DU?$char_traits@D@std@@@std@@IBEPADXZ 00438124     msvcprt:MSVCP120.dll
 0004:00000128       __imp_?pptr@?$basic_streambuf@DU?$char_traits@D@std@@@std@@IBEPADXZ 00438128     msvcprt:MSVCP120.dll
 0004:0000012c       __imp_?egptr@?$basic_streambuf@DU?$char_traits@D@std@@@std@@IBEPADXZ 0043812c     msvcprt:MSVCP120.dll
 0004:00000130       __imp_?setg@?$basic_streambuf@DU?$char_traits@D@std@@@std@@IAEXPAD00@Z 00438130     msvcprt:MSVCP120.dll
 0004:00000134       __imp_?epptr@?$basic_streambuf@DU?$char_traits@D@std@@@std@@IBEPADXZ 00438134     msvcprt:MSVCP120.dll
 0004:00000138       __imp_?_Gndec@?$basic_streambuf@DU?$char_traits@D@std@@@std@@IAEPADXZ 00438138     msvcprt:MSVCP120.dll
 0004:0000013c       __imp_?_Gninc@?$basic_streambuf@DU?$char_traits@D@std@@@std@@IAEPADXZ 0043813c     msvcprt:MSVCP120.dll
 0004:00000140       __imp_?_Pninc@?$basic_streambuf@DU?$char_traits@D@std@@@std@@IAEPADXZ 00438140     msvcprt:MSVCP120.dll
 0004:00000144       __imp_?_Init@?$basic_streambuf@DU?$char_traits@D@std@@@std@@IAEXXZ 00438144     msvcprt:MSVCP120.dll
 0004:00000148       __imp_?_Init@?$basic_streambuf@DU?$char_traits@D@std@@@std@@IAEXPAPAD0PAH001@Z 00438148     msvcprt:MSVCP120.dll
 0004:0000014c       __imp_??1?$basic_ios@DU?$char_traits@D@std@@@std@@UAE@XZ 0043814c     msvcprt:MSVCP120.dll
 0004:00000150       __imp_?clear@?$basic_ios@DU?$char_traits@D@std@@@std@@QAEXH_N@Z 00438150     msvcprt:MSVCP120.dll
 0004:00000154       __imp_?setstate@?$basic_ios@DU?$char_traits@D@std@@@std@@QAEXH_N@Z 00438154     msvcprt:MSVCP120.dll
 0004:00000158       __imp_?tie@?$basic_ios@DU?$char_traits@D@std@@@std@@QBEPAV?$basic_ostream@DU?$char_traits@D@std@@@2@XZ 00438158     msvcprt:MSVCP120.dll
 0004:0000015c       __imp_?rdbuf@?$basic_ios@DU?$char_traits@D@std@@@std@@QBEPAV?$basic_streambuf@DU?$char_traits@D@std@@@2@XZ 0043815c     msvcprt:MSVCP120.dll
 0004:00000160       __imp_?id@?$codecvt@DDH@std@@2V0locale@2@A 00438160     msvcprt:MSVCP120.dll
 0004:00000164       \177MSVCP120_NULL_THUNK_DATA 00438164     msvcprt:MSVCP120.dll
 0004:000001c4       __imp____crtTerminateProcess 004381c4     MSVCRT:MSVCR120.dll
 0004:000001c8       __imp____crtUnhandledException 004381c8     MSVCRT:MSVCR120.dll
 0004:000001cc       __imp___crt_debugger_hook  004381cc     MSVCRT:MSVCR120.dll
 0004:000001d0       __imp___except_handler4_common 004381d0     MSVCRT:MSVCR120.dll
 0004:000001d4       __imp___controlfp_s        004381d4     MSVCRT:MSVCR120.dll
 0004:000001d8       __imp___invoke_watson      004381d8     MSVCRT:MSVCR120.dll
 0004:000001dc       __imp____crtSetUnhandledExceptionFilter 004381dc     MSVCRT:MSVCR120.dll
 0004:000001e0       __imp_??1type_info@@UAE@XZ 004381e0     MSVCRT:MSVCR120.dll
 0004:000001e4       __imp___onexit             004381e4     MSVCRT:MSVCR120.dll
 0004:000001e8       __imp____dllonexit         004381e8     MSVCRT:MSVCR120.dll
 0004:000001ec       __imp___calloc_crt         004381ec     MSVCRT:MSVCR120.dll
 0004:000001f0       __imp___unlock             004381f0     MSVCRT:MSVCR120.dll
 0004:000001f4       __imp___lock               004381f4     MSVCRT:MSVCR120.dll
 0004:000001f8       __imp___commode            004381f8     MSVCRT:MSVCR120.dll
 0004:000001fc       __imp___fmode              004381fc     MSVCRT:MSVCR120.dll
 0004:00000200       __imp____initenv           00438200     MSVCRT:MSVCR120.dll
 0004:00000204       __imp___initterm           00438204     MSVCRT:MSVCR120.dll
 0004:00000208       __imp___initterm_e         00438208     MSVCRT:MSVCR120.dll
 0004:0000020c       __imp____setusermatherr    0043820c     MSVCRT:MSVCR120.dll
 0004:00000210       __imp___configthreadlocale 00438210     MSVCRT:MSVCR120.dll
 0004:00000214       __imp___purecall           00438214     MSVCRT:MSVCR120.dll
 0004:00000218       __imp_??2@YAPAXI@Z         00438218     MSVCRT:MSVCR120.dll
 0004:0000021c       __imp_??3@YAXPAX@Z         0043821c     MSVCRT:MSVCR120.dll
 0004:00000220       __imp__memcpy              00438220     MSVCRT:MSVCR120.dll
 0004:00000224       __imp__strlen              00438224     MSVCRT:MSVCR120.dll
 0004:00000228       __imp__memmove             00438228     MSVCRT:MSVCR120.dll
 0004:0000022c       __imp___hypot              0043822c     MSVCRT:MSVCR120.dll
 0004:00000230       __imp_??_V@YAXPAX@Z        00438230     MSVCRT:MSVCR120.dll
 0004:00000234       __imp___CxxThrowException@8 00438234     MSVCRT:MSVCR120.dll
 0004:00000238       __imp____CxxFrameHandler3  00438238     MSVCRT:MSVCR120.dll
 0004:0000023c       __imp____RTDynamicCast     0043823c     MSVCRT:MSVCR120.dll
 0004:00000240       __imp__printf              00438240     MSVCRT:MSVCR120.dll
 0004:00000244       __imp__rand                00438244     MSVCRT:MSVCR120.dll
 0004:00000248       __imp___wassert            00438248     MSVCRT:MSVCR120.dll
 0004:0000024c       __imp___errno              0043824c     MSVCRT:MSVCR120.dll
 0004:00000250       __imp__fclose              00438250     MSVCRT:MSVCR120.dll
 0004:00000254       __imp__fflush              00438254     MSVCRT:MSVCR120.dll
 0004:00000258       __imp__fgetc               00438258     MSVCRT:MSVCR120.dll
 0004:0000025c       __imp__fgetpos             0043825c     MSVCRT:MSVCR120.dll
 0004:00000260       __imp__fputc               00438260     MSVCRT:MSVCR120.dll
 0004:00000264       __imp__fsetpos             00438264     MSVCRT:MSVCR120.dll
 0004:00000268       __imp___fseeki64           00438268     MSVCRT:MSVCR120.dll
 0004:0000026c       __imp__fwrite              0043826c     MSVCRT:MSVCR120.dll
 0004:00000270       __imp__setvbuf             00438270     MSVCRT:MSVCR120.dll
 0004:00000274       __imp__ungetc              00438274     MSVCRT:MSVCR120.dll
 0004:00000278       __imp__sprintf             00438278     MSVCRT:MSVCR120.dll
 0004:0000027c       __imp___lock_file          0043827c     MSVCRT:MSVCR120.dll
 0004:00000280       __imp___unlock_file        00438280     MSVCRT:MSVCR120.dll
 0004:00000284       __imp__memchr              00438284     MSVCRT:MSVCR120.dll
 0004:00000288       __imp__memcmp              00438288     MSVCRT:MSVCR120.dll
 0004:0000028c       __imp__memcpy_s            0043828c     MSVCRT:MSVCR120.dll
 0004:00000290       __imp__memset              00438290     MSVCRT:MSVCR120.dll
 0004:00000294       __imp__strtol              00438294     MSVCRT:MSVCR120.dll
 0004:00000298       __imp__cos                 00438298     MSVCRT:MSVCR120.dll
 0004:0000029c       __imp__sin                 0043829c     MSVCRT:MSVCR120.dll
 0004:000002a0       __imp_?terminate@@YAXXZ    004382a0     MSVCRT:MSVCR120.dll
 0004:000002a4       __imp_??0bad_cast@std@@QAE@PBD@Z 004382a4     MSVCRT:MSVCR120.dll
 0004:000002a8       __imp_??0bad_cast@std@@QAE@ABV01@@Z 004382a8     MSVCRT:MSVCR120.dll
 0004:000002ac       __imp_??0exception@std@@QAE@ABV01@@Z 004382ac     MSVCRT:MSVCR120.dll
 0004:000002b0       __imp_??1bad_cast@std@@UAE@XZ 004382b0     MSVCRT:MSVCR120.dll
 0004:000002b4       __imp__abs                 004382b4     MSVCRT:MSVCR120.dll
 0004:000002b8       __imp__srand               004382b8     MSVCRT:MSVCR120.dll
 0004:000002bc       __imp___time64             004382bc     MSVCRT:MSVCR120.dll
 0004:000002c0       __imp____iob_func          004382c0     MSVCRT:MSVCR120.dll
 0004:000002c4       __imp__fprintf             004382c4     MSVCRT:MSVCR120.dll
 0004:000002c8       __imp__atan                004382c8     MSVCRT:MSVCR120.dll
 0004:000002cc       __imp__strcpy              004382cc     MSVCRT:MSVCR120.dll
 0004:000002d0       __imp__strcmp              004382d0     MSVCRT:MSVCR120.dll
 0004:000002d4       __imp___XcptFilter         004382d4     MSVCRT:MSVCR120.dll
 0004:000002d8       __imp___amsg_exit          004382d8     MSVCRT:MSVCR120.dll
 0004:000002dc       __imp____getmainargs       004382dc     MSVCRT:MSVCR120.dll
 0004:000002e0       __imp____set_app_type      004382e0     MSVCRT:MSVCR120.dll
 0004:000002e4       __imp__exit                004382e4     MSVCRT:MSVCR120.dll
 0004:000002e8       __imp___exit               004382e8     MSVCRT:MSVCR120.dll
 0004:000002ec       __imp___cexit              004382ec     MSVCRT:MSVCR120.dll
 0004:000002f0       \177MSVCR120_NULL_THUNK_DATA 004382f0     MSVCRT:MSVCR120.dll
 0004:00000358       __imp__SDL_LockSurface     00438358     SDL2:SDL2.dll
 0004:0000035c       __imp__SDL_UnlockSurface   0043835c     SDL2:SDL2.dll
 0004:00000360       __imp__SDL_FillRect        00438360     SDL2:SDL2.dll
 0004:00000364       __imp__SDL_cos             00438364     SDL2:SDL2.dll
 0004:00000368       __imp__SDL_UpperBlit       00438368     SDL2:SDL2.dll
 0004:0000036c       __imp__SDL_CreateWindow    0043836c     SDL2:SDL2.dll
 0004:00000370       __imp__SDL_PollEvent       00438370     SDL2:SDL2.dll
 0004:00000374       __imp__SDL_CreateRenderer  00438374     SDL2:SDL2.dll
 0004:00000378       __imp__SDL_CreateTexture   00438378     SDL2:SDL2.dll
 0004:0000037c       __imp__SDL_UpdateTexture   0043837c     SDL2:SDL2.dll
 0004:00000380       __imp__SDL_RenderCopy      00438380     SDL2:SDL2.dll
 0004:00000384       __imp__SDL_RenderPresent   00438384     SDL2:SDL2.dll
 0004:00000388       __imp__SDL_GetTicks        00438388     SDL2:SDL2.dll
 0004:0000038c       __imp__SDL_Delay           0043838c     SDL2:SDL2.dll
 0004:00000390       __imp__SDL_Init            00438390     SDL2:SDL2.dll
 0004:00000394       __imp__SDL_Quit            00438394     SDL2:SDL2.dll
 0004:00000398       __imp__SDL_wcslen          00438398     SDL2:SDL2.dll
 0004:0000039c       __imp__SDL_iconv_string    0043839c     SDL2:SDL2.dll
 0004:000003a0       __imp__SDL_malloc          004383a0     SDL2:SDL2.dll
 0004:000003a4       __imp__SDL_free            004383a4     SDL2:SDL2.dll
 0004:000003a8       __imp__SDL_FreeSurface     004383a8     SDL2:SDL2.dll
 0004:000003ac       __imp__SDL_CreateRGBSurface 004383ac     SDL2:SDL2.dll
 0004:000003b0       __imp__SDL_GetError        004383b0     SDL2:SDL2.dll
 0004:000003b4       __imp__SDL_sqrt            004383b4     SDL2:SDL2.dll
 0004:000003b8       __imp__SDL_sin             004383b8     SDL2:SDL2.dll
 0004:000003bc       __imp__SDL_pow             004383bc     SDL2:SDL2.dll
 0004:000003c0       __imp__SDL_SetMainReady    004383c0     SDL2:SDL2.dll
 0004:000003c4       __imp__SDL_isspace         004383c4     SDL2:SDL2.dll
 0004:000003c8       \177SDL2_NULL_THUNK_DATA   004383c8     SDL2:SDL2.dll
 0004:00000408       __imp__IMG_Load            00438408     SDL2_image:SDL2_image.dll
 0004:0000040c       \177SDL2_image_NULL_THUNK_DATA 0043840c     SDL2_image:SDL2_image.dll
 0004:00000438       __imp__TTF_RenderText_Solid 00438438     SDL2_ttf:SDL2_ttf.dll
 0004:0000043c       __imp__TTF_Init            0043843c     SDL2_ttf:SDL2_ttf.dll
 0004:00000440       __imp__TTF_Quit            00438440     SDL2_ttf:SDL2_ttf.dll
 0004:00000444       __imp__TTF_OpenFont        00438444     SDL2_ttf:SDL2_ttf.dll
 0004:00000448       __imp__TTF_CloseFont       00438448     SDL2_ttf:SDL2_ttf.dll
 0004:0000044c       \177SDL2_ttf_NULL_THUNK_DATA 0043844c     SDL2_ttf:SDL2_ttf.dll
 0004:0000047c       __IMPORT_DESCRIPTOR_SDL2   0043847c     SDL2:SDL2.dll
 0004:00000490       __IMPORT_DESCRIPTOR_SDL2_image 00438490     SDL2_image:SDL2_image.dll
 0004:000004a4       __IMPORT_DESCRIPTOR_SDL2_ttf 004384a4     SDL2_ttf:SDL2_ttf.dll
 0004:000004b8       __IMPORT_DESCRIPTOR_MSVCP120 004384b8     msvcprt:MSVCP120.dll
 0004:000004cc       __IMPORT_DESCRIPTOR_MSVCR120 004384cc     MSVCRT:MSVCR120.dll
 0004:000004e0       __IMPORT_DESCRIPTOR_KERNEL32 004384e0     kernel32:KERNEL32.dll
 0004:000004f4       __NULL_IMPORT_DESCRIPTOR   004384f4     SDL2:SDL2.dll
